(dp0
S'name'
p1
S'convergence'
p2
sS'settings'
p3
(dp4
S'n_e'
p5
I10
sS'problems'
p6
(lp7
I1
aI2
aI6
aI8
asS'm'
p8
I5
sS'num_runs'
p9
I20
sS'n'
p10
I10000
ssS'algs'
p11
(lp12
S'RESOO'
p13
aS'SRESOO'
p14
aS'EmbeddedHunter'
p15
asS'at'
p16
(lp17
I10
aI50
aI100
aI1000
aI10000
aI50000
aI100000
asS'data'
p18
(dp19
I8
(dp20
g13
(dp21
I100000
(lp22
F7.49580107999866
aF7.8197115447411
aF7.947605457010553
aF7.904364876879075
aF8.318433618949056
aF8.56391329675504
aF7.200681548495121
aF7.6476577897264715
aF8.022689355138619
aF7.5489699800727195
aF7.838235258527302
aF6.817125461148155
aF7.557370815611039
aF7.771274213442307
aF8.633958919166531
aF7.760533379169038
aF6.862178307491144
aF7.427019717417478
aF7.5038781409125335
aF6.720466551746183
asI50000
(lp23
F7.49580107999866
aF7.878297892424188
aF8.418071940413546
aF8.04586403075854
aF8.318433618949056
aF8.56391329675504
aF7.200681548495121
aF7.6476577897264715
aF8.022689355138619
aF7.5489699800727195
aF8.344428542083357
aF6.817125461148155
aF7.557370815611039
aF7.771274213442307
aF8.633958919166531
aF7.760533379169038
aF8.239420128460543
aF7.427019717417478
aF7.5038781409125335
aF6.720466551746183
asI100
(lp24
F7.49580107999866
aF7.878297892424188
aF8.651248852382235
aF8.818275384869107
aF8.641720194012846
aF8.618448549067676
aF8.440782686326926
aF7.6476577897264715
aF8.162255632669488
aF8.568749717455855
aF8.734898974726832
aF6.953372253857864
aF8.453876978630051
aF7.771274213442307
aF8.633958919166533
aF8.461865647338358
aF8.572403548402699
aF8.36780398818799
aF8.172678269532367
aF6.720466551746185
asI1000
(lp25
F7.49580107999866
aF7.878297892424188
aF8.489794785777642
aF8.704879978529604
aF8.463196638476731
aF8.618448549067676
aF8.424096891908238
aF7.6476577897264715
aF8.162255632669488
aF7.984720910126605
aF8.449582668051173
aF6.953372253857864
aF8.452550958277001
aF7.771274213442307
aF8.633958919166531
aF8.29633146863004
aF8.572403548402699
aF8.0063971244572
aF7.655912068957775
aF6.720466551746183
asI10
(lp26
F7.508300884332446
aF8.090398913565245
aF8.658780032053048
aF8.856304309040882
aF8.722578778207485
aF8.72821510085655
aF8.466524947136827
aF7.657819630355384
aF8.304249674713244
aF8.576510066131812
aF8.934880359898468
aF8.32116934252882
aF8.465691312770792
aF7.782820673188056
aF8.667677146743644
aF8.464412223036762
aF8.890165400478303
aF8.843015719881697
aF8.441161049088205
aF6.727604745607223
asI10000
(lp27
F7.49580107999866
aF7.878297892424188
aF8.489794785777642
aF8.704879978529604
aF8.463196638476731
aF8.618448549067676
aF7.636759343382272
aF7.6476577897264715
aF8.162255632669488
aF7.984720910126605
aF8.385233680807994
aF6.953372253857864
aF8.452550958277001
aF7.771274213442307
aF8.633958919166531
aF8.29633146863004
aF8.572403548402699
aF8.0063971244572
aF7.655912068957775
aF6.720466551746183
asI50
(lp28
F7.495801080001613
aF8.074038787359411
aF8.65124885238367
aF8.818275384879865
aF8.711362245588946
aF8.701042391470995
aF8.453411538549172
aF7.647657789729362
aF8.253491533975062
aF8.568749717457926
aF8.926164026242558
aF8.309182101106735
aF8.453876978633389
aF7.771274213445613
aF8.633958919176079
aF8.461865647339051
aF8.88274734158602
aF8.836052643284932
aF8.437618962146518
aF6.720466551748137
assg15
(dp29
I100000
(lp30
F4.614950996363497
aF4.882315715609501
aF4.675381922360835
aF4.136746525476063
aF4.530085011015604
aF4.746315517561666
aF4.337467260874501
aF4.92176626816439
aF4.804001105746135
aF4.389104278946636
aF4.569006967633364
aF4.291720238560593
aF5.160893935307907
aF4.782343161172186
aF4.3857906485409615
aF4.940985650766958
aF4.795374822337546
aF4.443101124461979
aF4.503365180337699
aF4.881498075156021
asI50000
(lp31
F4.614950996363497
aF4.882315715609501
aF4.675381922360835
aF4.136746525476063
aF5.194524343155091
aF4.746315517561666
aF4.347830179303738
aF4.92176626816439
aF4.804001105746135
aF4.389104278946636
aF4.569006967633364
aF4.291720238560593
aF5.160893935307907
aF4.782343161172186
aF4.3857906485409615
aF4.940985650766958
aF4.795374822337546
aF4.443101124461979
aF4.503365180337699
aF4.881498075156021
asI100
(lp32
F5.004698532720656
aF7.306036094961488
aF7.908511110787744
aF7.944435136182127
aF7.119410343963436
aF6.880866672703387
aF6.630220068020037
aF8.21543896760824
aF7.182750776200848
aF8.46859439770202
aF7.742548100897844
aF7.281650851877485
aF7.524776075360769
aF6.824369922407698
aF7.850076335230069
aF8.225911242819409
aF8.00263042705584
aF8.041514353326587
aF7.757057425849572
aF7.862365623038528
asI1000
(lp33
F5.004698532720656
aF6.211512699266219
aF6.942277450206385
aF7.470575028394693
aF5.456607286298659
aF4.861030339247716
aF6.044346481468196
aF6.75813434487746
aF5.974394324520311
aF6.6700819088991885
aF6.057936138311234
aF6.061123929657175
aF5.318871380753979
aF4.782343161172186
aF6.404891623655843
aF6.121983785114207
aF6.054764876575248
aF7.067445510295336
aF7.6570606327373
aF7.466759622500717
asI10
(lp34
F8.287538838272214
aF7.50571568775811
aF7.908511110787744
aF7.944435136182127
aF7.734864691858327
aF7.042932512087393
aF7.306538371629182
aF8.536376041498492
aF8.574441856412005
aF8.792307471309087
aF8.350957211863822
aF8.634759922263573
aF8.18084776458201
aF8.709743263721613
aF8.435756655983408
aF8.225911242819409
aF8.060848369311298
aF8.686596559853292
aF8.13387271122743
aF8.323495007245729
asI10000
(lp35
F4.614950996363497
aF5.138574339972443
aF4.675381922360835
aF4.136746525476063
aF5.456607286298659
aF4.7638745087896055
aF5.269842135078722
aF4.92176626816439
aF4.804001105746135
aF4.949379630541742
aF4.569006967633364
aF4.291720238560593
aF5.318871380753979
aF4.782343161172186
aF4.3857906485409615
aF4.940985650766958
aF5.392605132307654
aF5.5523311612463
aF4.503365180337699
aF5.200442586757742
asI50
(lp36
F5.884420554486855
aF7.306036094961488
aF7.908511110787744
aF7.944435136182127
aF7.734864691858327
aF7.042932512087393
aF6.74219863988975
aF8.321011329372581
aF7.182750776200848
aF8.573624373579285
aF7.742548100897844
aF7.339092713720104
aF7.524776075360769
aF8.052141533355522
aF8.049690708194841
aF8.225911242819409
aF8.00263042705584
aF8.183003107795015
aF7.928441704500925
aF7.862365623038528
assg14
(dp37
I100000
(lp38
F9.333557804806551
aF9.313565489204272
aF9.304491380533676
aF9.365270106056
aF9.329905185528869
aF9.294266404123578
aF9.328094969100592
aF9.329632977709128
aF9.351842654060777
aF9.230329604478088
aF9.237276848293783
aF9.26511477205431
aF9.306564393583042
aF9.328732664042207
aF9.375611304757884
aF9.387802641741743
aF9.279094081456265
aF9.27798686673224
aF9.27047233476244
aF9.319398006928113
asI50000
(lp39
F9.342465553248076
aF9.313565489204272
aF9.304491380533676
aF9.365270106056
aF9.329905185528869
aF9.316826868517364
aF9.379143354271541
aF9.343821067180185
aF9.351842654060777
aF9.266463205580584
aF9.237276848293783
aF9.26511477205431
aF9.306564393583042
aF9.328732664042207
aF9.389163320072434
aF9.387802641741743
aF9.2957193715237
aF9.336843568241987
aF9.27047233476244
aF9.319398006928113
asI100
(lp40
F9.342465553248076
aF9.347935034838088
aF9.349070751030155
aF9.426085383486534
aF9.371634206740413
aF9.419208318560496
aF9.379143354271541
aF9.396903536120655
aF9.351842654060777
aF9.401894152060109
aF9.431116533954249
aF9.26511477205431
aF9.352571185244022
aF9.328732664042207
aF9.418337845629466
aF9.387802641741743
aF9.38013511467573
aF9.440285216510894
aF9.310728911393163
aF9.429610049502658
asI1000
(lp41
F9.342465553248076
aF9.347935034838088
aF9.314485086372967
aF9.396734894528342
aF9.371634206740413
aF9.419208318560496
aF9.379143354271541
aF9.396903536120655
aF9.351842654060777
aF9.401894152060109
aF9.431116533954249
aF9.26511477205431
aF9.352571185244022
aF9.328732664042207
aF9.416845261915483
aF9.387802641741743
aF9.366950808094412
aF9.440285216510894
aF9.310728911393163
aF9.371583983963474
asI10
(lp42
F9.3433023172071
aF9.401821489820737
aF9.349265416301746
aF9.426222548830918
aF9.447552314766071
aF9.419610995493368
aF9.406675100287487
aF9.415414309206376
aF9.352029265182656
aF9.436054026502745
aF9.44641145734479
aF9.26531004385416
aF9.387433993339682
aF9.3289259077348
aF9.418503908695897
aF9.388060777404974
aF9.380344230381427
aF9.44106134948705
aF9.441043061067312
aF9.430301974442102
asI10000
(lp43
F9.342465553248076
aF9.347935034838088
aF9.314485086372967
aF9.396734894528342
aF9.371634206740413
aF9.386006041503222
aF9.379143354271541
aF9.396903536120655
aF9.351842654060777
aF9.401894152060109
aF9.431116533954249
aF9.26511477205431
aF9.352571185244022
aF9.328732664042207
aF9.416845261915483
aF9.387802641741743
aF9.366950808094412
aF9.440285216510894
aF9.310728911393163
aF9.371583983963474
asI50
(lp44
F9.342852045926508
aF9.401710246339718
aF9.349070751030231
aF9.426085383486573
aF9.447329509819223
aF9.419208318560566
aF9.406263919692694
aF9.415291928386099
aF9.3518426540609
aF9.435664091492905
aF9.445855521484804
aF9.265114772054387
aF9.38691661974244
aF9.328732664042388
aF9.418337845629598
aF9.387802641741855
aF9.380135114675769
aF9.440928825973979
aF9.44097078286379
aF9.429610049502728
asssI1
(dp45
g13
(dp46
I100000
(lp47
cnumpy.core.multiarray
scalar
p48
(cnumpy
dtype
p49
(S'f8'
p50
I0
I1
tp51
Rp52
(I3
S'<'
p53
NNNI-1
I-1
I0
tp54
bS'\xd1\x08QG\x07\x94I@'
p55
tp56
Rp57
ag48
(g52
S'\xf6n\xe66U&\xc8@'
p58
tp59
Rp60
ag48
(g52
S'M`Z:\xb6\xc9\\@'
p61
tp62
Rp63
ag48
(g52
S'\x15\xbb\xa6[\xc4\xa3F@'
p64
tp65
Rp66
ag48
(g52
S'JHG)\xd3\xbaR@'
p67
tp68
Rp69
ag48
(g52
S'\xdc\xc6\x94\x8f\x1d\xee`@'
p70
tp71
Rp72
ag48
(g52
S'\xe3K$RIfI@'
p73
tp74
Rp75
ag48
(g52
S'X\xb42\x03\xad4J@'
p76
tp77
Rp78
ag48
(g52
S'&\xbf\x18-\xe1\xd1W@'
p79
tp80
Rp81
ag48
(g52
S'e\xeb\x01\xbd\xf2\xa9G@'
p82
tp83
Rp84
ag48
(g52
S'0Ha\xdb\x14c?@'
p85
tp86
Rp87
ag48
(g52
S'\xd2i9\xed\xd3\xb6U@'
p88
tp89
Rp90
ag48
(g52
S'5#\x97g\xf9T\x97@'
p91
tp92
Rp93
ag48
(g52
S'CVZ\x9cw\xfcH@'
p94
tp95
Rp96
ag48
(g52
S'\x8c\xf8\xee\xb0\xb1N[@'
p97
tp98
Rp99
ag48
(g52
S'\xb7\xea?\xf8\xd7\xbdY@'
p100
tp101
Rp102
ag48
(g52
S's\x10x\x8bm|X@'
p103
tp104
Rp105
ag48
(g52
S';\xf3\x90j\xa4\xc3R@'
p106
tp107
Rp108
ag48
(g52
S'\xb0\xb7i\xd7\xaf\x9b`@'
p109
tp110
Rp111
ag48
(g52
S'3\xf5\x9dr\xb1\x19\xcc@'
p112
tp113
Rp114
asI50000
(lp115
g57
ag60
ag63
ag66
ag48
(g52
S'\x1f\xf3M\x11R6\xc2@'
p116
tp117
Rp118
ag72
ag48
(g52
S'\xed\x99}\xa5\xa3\xccL@'
p119
tp120
Rp121
ag48
(g52
S'\xf8Z\t\xa4\xfa\xc1\xc5@'
p122
tp123
Rp124
ag48
(g52
S'\xba\xc3\xf1j\xbd=\x86@'
p125
tp126
Rp127
ag48
(g52
S'\xa2\x0f\xf5Z\r\xb2G@'
p128
tp129
Rp130
ag48
(g52
S'\xbdv\xe41V\xc8@@'
p131
tp132
Rp133
ag48
(g52
S'\xa0\xa3\xbf\xb8\x1eBp@'
p134
tp135
Rp136
ag93
ag96
ag99
ag102
ag48
(g52
S'\xfb\xdd|\x0bL\x0c\xff@'
p137
tp138
Rp139
ag108
ag111
ag114
asI100
(lp140
g48
(g52
S'\xafE\xae\xe0v\x9a\xf4@'
p141
tp142
Rp143
ag60
ag63
ag48
(g52
S'\xa8\xd1e\xfa\xf6\xad\xd2@'
p144
tp145
Rp146
ag118
ag48
(g52
S'\x88\xcbr\xe9e9\xcd@'
p147
tp148
Rp149
ag48
(g52
S'\x98HZ\x0b#\x1d`@'
p150
tp151
Rp152
ag48
(g52
S'\xf4Sk\xa6P\xe1\xf6@'
p153
tp154
Rp155
ag127
ag48
(g52
S"\xf5\xb7\xec'\xbc\xd8P@"
p156
tp157
Rp158
ag48
(g52
S'\xe7\xae\x1cU\xf9\xdcF@'
p159
tp160
Rp161
ag136
ag48
(g52
S'\x04\xc3\xef\xed\xb1\x04\x05A'
p162
tp163
Rp164
ag96
ag48
(g52
S'J\xdfq\xbc\x97\x9d\x0cA'
p165
tp166
Rp167
ag102
ag48
(g52
S'K\t\xe8\xbdLT\x07A'
p168
tp169
Rp170
ag48
(g52
S'\xb8\xef\xe9i\x00\x90_@'
p171
tp172
Rp173
ag48
(g52
S'\x1d\xc5j/\x0bM\x0fA'
p174
tp175
Rp176
ag48
(g52
S'\x92r\xb0\xbf\xb5\xe7\xcc@'
p177
tp178
Rp179
asI1000
(lp180
g143
ag60
ag63
ag146
ag118
ag48
(g52
S'\x85s\xbb\x82\x18gz@'
p181
tp182
Rp183
ag121
ag155
ag127
ag130
ag133
ag136
ag48
(g52
S'2Sl\xf3 \xf3\xfe@'
p184
tp185
Rp186
ag96
ag167
ag102
ag170
ag173
ag48
(g52
S'\xf7\x1b\xc4\xde\xd8\xf0\xa0@'
p187
tp188
Rp189
ag179
asI10
(lp190
g48
(g52
S'>\xd5\xf7\x05k\xb3\x10A'
p191
tp192
Rp193
ag48
(g52
S'\xd1\xe1\x01\x08aq\xc8@'
p194
tp195
Rp196
ag48
(g52
S'\xb8\x8fr\xd3e\xfc\\@'
p197
tp198
Rp199
ag48
(g52
S'\xd2\xbe\xcd\x92\x0bE\xfa@'
p200
tp201
Rp202
ag48
(g52
S'\x13\xd7\x0b\x8e\xbd\x81\xc9@'
p203
tp204
Rp205
ag48
(g52
S':N\x19,C\xe4\xcd@'
p206
tp207
Rp208
ag48
(g52
S'G\xb9\xc2\xb3\x9e=c@'
p209
tp210
Rp211
ag48
(g52
S'\xb4\x04J\x8e\xea]\x00A'
p212
tp213
Rp214
ag48
(g52
S'\xc6\xd0\x93X\xba\x83\x8d@'
p215
tp216
Rp217
ag48
(g52
S'\x19\xa3pc\xb0IV@'
p218
tp219
Rp220
ag48
(g52
S'\xebg\x9dL\xb8\xf7R@'
p221
tp222
Rp223
ag48
(g52
S'\x10\x0c/\x948\xf1\xe1@'
p224
tp225
Rp226
ag48
(g52
S'k\xf6\xac\x99\x7f~\x05A'
p227
tp228
Rp229
ag48
(g52
S'\xa1\xc4n\x15\xf1\xe6I@'
p230
tp231
Rp232
ag48
(g52
S'\x0f>\xdf\x1f\xb3\xf2\x0eA'
p233
tp234
Rp235
ag48
(g52
S'\xd6\n\x07\xe1b\xbb]@'
p236
tp237
Rp238
ag48
(g52
S'\x0e\xdd\xb3_\xf0\xc1\x08A'
p239
tp240
Rp241
ag48
(g52
S'\x1f\xc5\xe9\xc5\xfe\xd6\x82@'
p242
tp243
Rp244
ag48
(g52
S'\x13\x16\xb4?\xfa\x80\x0fA'
p245
tp246
Rp247
ag48
(g52
S'=][\xb2\x15-\xd0@'
p248
tp249
Rp250
asI10000
(lp251
g143
ag60
ag63
ag146
ag118
ag183
ag121
ag155
ag127
ag130
ag133
ag136
ag186
ag96
ag167
ag102
ag170
ag173
ag189
ag179
asI50
(lp252
g48
(g52
S'\xe5\x02\xff\x83\x84\\\x10A'
p253
tp254
Rp255
ag48
(g52
S'\x1a\xcb\xe66U&\xc8@'
p256
tp257
Rp258
ag48
(g52
S'\x11\x90Z:\xb6\xc9\\@'
p259
tp260
Rp261
ag48
(g52
S'a\xcf\xd0\x94f\x96\xf9@'
p262
tp263
Rp264
ag48
(g52
S'\x83b\x05\x92*\xac\xc7@'
p265
tp266
Rp267
ag48
(g52
S'\xf7\x9cs\xe9e9\xcd@'
p268
tp269
Rp270
ag48
(g52
S'\x0bh[\x0b#\x1d`@'
p271
tp272
Rp273
ag48
(g52
S'z\xec\x8d\x0b\xa1\x01\x00A'
p274
tp275
Rp276
ag48
(g52
S'\x1a\x89\xc2\xc0\xef\xf7\x87@'
p277
tp278
Rp279
ag48
(g52
S'e)v\xb0\xa0zU@'
p280
tp281
Rp282
ag48
(g52
S'E\\s\xac\xdb`H@'
p283
tp284
Rp285
ag48
(g52
S'\xa4\xf2\x03\x14\xa2n\xe1@'
p286
tp287
Rp288
ag48
(g52
S'/X\xf0\xed\xb1\x04\x05A'
p289
tp290
Rp291
ag48
(g52
S'"4\\\x9cw\xfcH@'
p292
tp293
Rp294
ag48
(g52
S'\xfb\x8bU\x8c\xaf\xe7\x0eA'
p295
tp296
Rp297
ag48
(g52
S'9\t@\xf8\xd7\xbdY@'
p298
tp299
Rp300
ag48
(g52
S'\x9e\t\xb9\x04\xc5q\x08A'
p301
tp302
Rp303
ag48
(g52
S'\x15EL-\x928\x81@'
p304
tp305
Rp306
ag48
(g52
S'\xfc\x04k/\x0bM\x0fA'
p307
tp308
Rp309
ag48
(g52
S'c\xed#\xbc\xcf\xe7\xce@'
p310
tp311
Rp312
assg15
(dp313
I100000
(lp314
g48
(g52
S'\xb6\xd1\xee,&$$@'
p315
tp316
Rp317
ag48
(g52
S's-\x17\xe4U99@'
p318
tp319
Rp320
ag48
(g52
S'\x15\x074j\x93\xce?@'
p321
tp322
Rp323
ag48
(g52
S'5\xd2qj\xb2>2@'
p324
tp325
Rp326
ag48
(g52
S'\xb8y3\xc7\xac@2@'
p327
tp328
Rp329
ag48
(g52
S'5%A\x1a\x06\x1a;@'
p330
tp331
Rp332
ag48
(g52
S'\xe2V<\xeb\x94\xa6:@'
p333
tp334
Rp335
ag48
(g52
S'K\x94\x8eA}1*@'
p336
tp337
Rp338
ag48
(g52
S'G\xdeo}\x9e\x80(@'
p339
tp340
Rp341
ag48
(g52
S'\n\xe8\x01A^\x14?@'
p342
tp343
Rp344
ag48
(g52
S'!I\x84iz\xc78@'
p345
tp346
Rp347
ag48
(g52
S'A\xca~t\xdb\xff8@'
p348
tp349
Rp350
ag48
(g52
S'5^\xe3\xa0u]7@'
p351
tp352
Rp353
ag48
(g52
S'\xc3\xb79S\x88\x02%@'
p354
tp355
Rp356
ag48
(g52
S'4\x88\xd4\xf8\x88\xea3@'
p357
tp358
Rp359
ag48
(g52
S'\x8e\x10\xae\x17sX8@'
p360
tp361
Rp362
ag48
(g52
S'\xfe\xbb\xcb\xab\xe7\xab8@'
p363
tp364
Rp365
ag48
(g52
S'\r\x90\xec\xf8\x92\xa82@'
p366
tp367
Rp368
ag48
(g52
S'\x14\xe4\x98\xe7c0:@'
p369
tp370
Rp371
ag48
(g52
S'\xfa\xbd\x01\r\xcd\xeb8@'
p372
tp373
Rp374
asI50000
(lp375
g317
ag320
ag323
ag326
ag48
(g52
S'\x13$\xf6\xb8\xdd\x8a?@'
p376
tp377
Rp378
ag332
ag335
ag338
ag341
ag48
(g52
S'\xe9\xdeW\x95\xd8\x00A@'
p379
tp380
Rp381
ag347
ag350
ag353
ag48
(g52
S'\xed\xfc$v?\xe25@'
p382
tp383
Rp384
ag359
ag362
ag48
(g52
S'\xfb\x06\n\x83P\xf1:@'
p385
tp386
Rp387
ag368
ag371
ag374
asI100
(lp388
g48
(g52
S'\xbb$\x00[\xbf\x1bU@'
p389
tp390
Rp391
ag48
(g52
S'\x9d`\x14\xed}\xbc\x01A'
p392
tp393
Rp394
ag48
(g52
S'S\x99m\xd7\xc3\xfcq@'
p395
tp396
Rp397
ag48
(g52
S'\x9a\x0f\x8a1*\xfef@'
p398
tp399
Rp400
ag48
(g52
S'v\xeb\xe3\xfe\x8c\tD@'
p401
tp402
Rp403
ag48
(g52
S'\xecH5O\x96#J@'
p404
tp405
Rp406
ag48
(g52
S';\x94\xab\xd9\x8b\xe3J@'
p407
tp408
Rp409
ag48
(g52
S'\xa4\xf1\xe4_\x16\xc2i@'
p410
tp411
Rp412
ag48
(g52
S'\xe6\x91.\xb6\x1d\xddK@'
p413
tp414
Rp415
ag48
(g52
S'\xad`\xa0|9\x10Q@'
p416
tp417
Rp418
ag48
(g52
S'\x95\xc5\x81\x87\xcas\x97@'
p419
tp420
Rp421
ag48
(g52
S'\xdc\xdb\xfa\xb3\xc7\x04\x14A'
p422
tp423
Rp424
ag48
(g52
S'\xff\xe7`\x80\x03W\xcd@'
p425
tp426
Rp427
ag48
(g52
S'\xf7%=\x93\x89\x19\xd0@'
p428
tp429
Rp430
ag48
(g52
S'\x8d\xd3fQ\xd68I@'
p431
tp432
Rp433
ag48
(g52
S'\x1dVc7\x84}J@'
p434
tp435
Rp436
ag48
(g52
S'\xd2\xd38b\xab\xc4S@'
p437
tp438
Rp439
ag48
(g52
S'k\xc4.\xc0;\xe8\x01A'
p440
tp441
Rp442
ag48
(g52
S'o=\xfd\x0fVrf@'
p443
tp444
Rp445
ag48
(g52
S'\x93\xff\xedR\x03\xe0{@'
p446
tp447
Rp448
asI1000
(lp449
g48
(g52
S'\xae\nS\x02g\x18@@'
p450
tp451
Rp452
ag48
(g52
S'\xa1\xca\xb4\x11\xc4qM@'
p453
tp454
Rp455
ag48
(g52
S'\xeeoX8>fI@'
p456
tp457
Rp458
ag48
(g52
S'P4\x85\x85\xab\x90O@'
p459
tp460
Rp461
ag403
ag48
(g52
S'%\x81_#\xc8\x0f>@'
p462
tp463
Rp464
ag409
ag48
(g52
S"\x07u\xe6'\xdb\xa5C@"
p465
tp466
Rp467
ag48
(g52
S'*{3q\xd2PF@'
p468
tp469
Rp470
ag48
(g52
S'y\xc4Mu\xec\xadA@'
p471
tp472
Rp473
ag48
(g52
S'S\xf4*Q\xc1\xcfG@'
p474
tp475
Rp476
ag48
(g52
S'}h\xa3\x06\xef\x8bF@'
p477
tp478
Rp479
ag48
(g52
S'\xb9\x85\xb75w\x9bD@'
p480
tp481
Rp482
ag48
(g52
S'\x0f_3F\xb9B]@'
p483
tp484
Rp485
ag48
(g52
S'\x86\xc7%r\x87\x0fE@'
p486
tp487
Rp488
ag48
(g52
S'\xc1\x0c\x8f/\xb1\xb1I@'
p489
tp490
Rp491
ag48
(g52
S'3\xba\xe8K\x91KS@'
p492
tp493
Rp494
ag48
(g52
S'?.O\xc81\xadF@'
p495
tp496
Rp497
ag48
(g52
S',\xcb\xc1\x1bDaR@'
p498
tp499
Rp500
ag48
(g52
S'\xc4\x11;9\xfb\xc9U@'
p501
tp502
Rp503
asI10
(lp504
g391
ag48
(g52
S'\xea\x95\xcb\xb6 4\x08A'
p505
tp506
Rp507
ag48
(g52
S'&\xfd(\x9a\xc5\x80\xad@'
p508
tp509
Rp510
ag48
(g52
S'=\r\xd0b\xce_\xb2@'
p511
tp512
Rp513
ag48
(g52
S'Mc\xc5\xba\xec\xb4\x00A'
p514
tp515
Rp516
ag48
(g52
S'\xd9i\x9d\xb8r\xc4\x97@'
p517
tp518
Rp519
ag48
(g52
S'\xe8\x1dEK\x1f\xdas@'
p520
tp521
Rp522
ag48
(g52
S'6{S\xd6\x8b"o@'
p523
tp524
Rp525
ag48
(g52
S'\xf6\x93\xe5\xa9UiZ@'
p526
tp527
Rp528
ag48
(g52
S'\x1c\x11\xa0\x8d\xf9\x9d\nA'
p529
tp530
Rp531
ag48
(g52
S'\x0f\xdcm\xb2\\\xbc\xd6@'
p532
tp533
Rp534
ag48
(g52
S'\xf3R\x1c\x1b\xb5\xa4\x18A'
p535
tp536
Rp537
ag48
(g52
S'\xe1m\xec\xfe\x9e\x8f\x0bA'
p538
tp539
Rp540
ag48
(g52
S'\xf2\x17\x85Z\x8d\xb3\xf3@'
p541
tp542
Rp543
ag48
(g52
S'\xef\xf7}3@}\xe1@'
p544
tp545
Rp546
ag48
(g52
S'Q\xee\xeb30\xf4f@'
p547
tp548
Rp549
ag48
(g52
S'xE6\xcc\x81\xb5\xc4@'
p550
tp551
Rp552
ag48
(g52
S'z\xc8\x1e\xda\xc9\xaf\x12A'
p553
tp554
Rp555
ag48
(g52
S'\xa5U,\xec\xa3\xaf\xa9@'
p556
tp557
Rp558
ag48
(g52
S'\xf1\xe8$\xb0B\xd7\x86@'
p559
tp560
Rp561
asI10000
(lp562
g48
(g52
S'v\xb614\xb4\x07;@'
p563
tp564
Rp565
ag48
(g52
S'6c#\x19|\xd3?@'
p566
tp567
Rp568
ag48
(g52
S'r\x99k\xce\xc3\tA@'
p569
tp570
Rp571
ag326
ag403
ag332
ag48
(g52
S'9k\xc1\x1bD\xc2C@'
p572
tp573
Rp574
ag48
(g52
S'\xc4\x91\xd1Z\x17\xbb0@'
p575
tp576
Rp577
ag48
(g52
S'\x10I\xad\xa0\x16fA@'
p578
tp579
Rp580
ag381
ag48
(g52
S'C\x0c\x08$\xf2\x02C@'
p581
tp582
Rp583
ag350
ag48
(g52
S'\xd2\xaf\xc7\x88\xe5\xd8A@'
p584
tp585
Rp586
ag48
(g52
S'\xe2\t\xc7\xf0W\xbc;@'
p587
tp588
Rp589
ag48
(g52
S'\xfd\xac)ap\xa59@'
p590
tp591
Rp592
ag362
ag48
(g52
S'^A\x0f\xc1\xf4\xd0F@'
p593
tp594
Rp595
ag48
(g52
S'\xe8"R\x02\x9d\xbd<@'
p596
tp597
Rp598
ag371
ag48
(g52
S'\xee\xbc@\x05\x90\t@@'
p599
tp600
Rp601
asI50
(lp602
g391
ag394
ag397
ag400
ag403
ag48
(g52
S'\xfb\x0c\xdc\xafx\xa2\x85@'
p603
tp604
Rp605
ag409
ag412
ag415
ag48
(g52
S'\x87\x9f\\\x94\xea^\x06A'
p606
tp607
Rp608
ag48
(g52
S'\x11F\xa1$\xf6B\xa9@'
p609
tp610
Rp611
ag424
ag427
ag430
ag433
ag48
(g52
S'\x16t\xa9tj\xf3P@'
p612
tp613
Rp614
ag48
(g52
S')%4\x13@\x1a\xbe@'
p615
tp616
Rp617
ag48
(g52
S'\xa2\xaa\x00\xc2X\x15\nA'
p618
tp619
Rp620
ag48
(g52
S')\xb0\xd7\xb1\x08\xa9f@'
p621
tp622
Rp623
ag448
assg14
(dp624
I100000
(lp625
g48
(g52
S'\xa9\xd8#dt\x8d\x1fA'
p626
tp627
Rp628
ag48
(g52
S'\xd73z\xdb2\xc4\x1dA'
p629
tp630
Rp631
ag48
(g52
S',D\xd6\x91\x8e5\x1eA'
p632
tp633
Rp634
ag48
(g52
S'\xc9)\xb1\x0e\xc7\x19\x1fA'
p635
tp636
Rp637
ag48
(g52
S'\xcar\xb0s,\x1f\x1fA'
p638
tp639
Rp640
ag48
(g52
S'\xdf\x1d\x03\xa9f\xef\x1eA'
p641
tp642
Rp643
ag48
(g52
S'(P>|\xb2\xe7\x1eA'
p644
tp645
Rp646
ag48
(g52
S'\x87\x83\xa0\xbe\xba#\x1fA'
p647
tp648
Rp649
ag48
(g52
S'lKD\x84\xc1\x94\x1fA'
p650
tp651
Rp652
ag48
(g52
S'\xc2w+#{\xaf\x1eA'
p653
tp654
Rp655
ag48
(g52
S'\x0fO\x13s\xc9q\x1fA'
p656
tp657
Rp658
ag48
(g52
S'\xb5<t\x17!7\x1fA'
p659
tp660
Rp661
ag48
(g52
S'\x9c\x95lQ v\x1eA'
p662
tp663
Rp664
ag48
(g52
S'!\xeb~\x13 \xb5\x1eA'
p665
tp666
Rp667
ag48
(g52
S'\x11\x17\x9f\xcb\xbd\xd4\x1eA'
p668
tp669
Rp670
ag48
(g52
S'\x91\x92\x9a\x02\xaa\xa1\x1fA'
p671
tp672
Rp673
ag48
(g52
S'\x91\xee\xc5G\x92h\x1eA'
p674
tp675
Rp676
ag48
(g52
S'I\x87\\\xd0IE\x1fA'
p677
tp678
Rp679
ag48
(g52
S'&\xa7\xd6\x90\xf09\x1fA'
p680
tp681
Rp682
ag48
(g52
S'\xc5\xa8>\xf1\x08\xbc\x1eA'
p683
tp684
Rp685
asI50000
(lp686
g628
ag48
(g52
S'\xa5G\x9eyG;\x1eA'
p687
tp688
Rp689
ag48
(g52
S'HnJa\xd3{\x1eA'
p690
tp691
Rp692
ag637
ag48
(g52
S'\xe2\x06u%\xa4\xb5\x1fA'
p693
tp694
Rp695
ag643
ag48
(g52
S'|R{\xcc#R\x1fA'
p696
tp697
Rp698
ag48
(g52
S'@\xc0Y\rpA\x1fA'
p699
tp700
Rp701
ag652
ag48
(g52
S'|\x06\x9e\xda\xb2\x15\x1fA'
p702
tp703
Rp704
ag658
ag661
ag664
ag667
ag48
(g52
S'\x91\x87>\xe0Cb\x1fA'
p705
tp706
Rp707
ag673
ag676
ag679
ag682
ag685
asI100
(lp708
g48
(g52
S'\x06\x05\xeaq\x80\xe0\x1fA'
p709
tp710
Rp711
ag48
(g52
S'\xea\x0e\xfb^k^\x1fA'
p712
tp713
Rp714
ag48
(g52
S'\x956\xf1\x89\x13j\x1fA'
p715
tp716
Rp717
ag637
ag695
ag48
(g52
S'\x00\x9e\xb5\x06\x88? A'
p718
tp719
Rp720
ag48
(g52
S'\x05&{%Y\x1d A'
p721
tp722
Rp723
ag48
(g52
S'd\xb7\x1cX\xb5\x12 A'
p724
tp725
Rp726
ag48
(g52
S'EFkl\x1b\xa4\x1fA'
p727
tp728
Rp729
ag48
(g52
S'\xed \xc9\xd1\xe9\x8b\x1fA'
p730
tp731
Rp732
ag48
(g52
S'\xae\xc9\xe8\xa7m\x0b A'
p733
tp734
Rp735
ag661
ag48
(g52
S'\xc9DK\x00Z\xae\x1eA'
p736
tp737
Rp738
ag48
(g52
S'\xbb1N&\xbe\xee\x1eA'
p739
tp740
Rp741
ag48
(g52
S'\n\xe5a\xa3\xff\x8b\x1fA'
p742
tp743
Rp744
ag673
ag676
ag679
ag48
(g52
S'\x93\x14\x0c\xb5\xdf5 A'
p745
tp746
Rp747
ag685
asI1000
(lp748
g48
(g52
S'\x8f\x845\xa0O\xb5\x1fA'
p749
tp750
Rp751
ag714
ag717
ag637
ag695
ag48
(g52
S'\xf3\xbe\\\x81\x1f\x98\x1fA'
p752
tp753
Rp754
ag723
ag48
(g52
S'\xa86q\xd4E\xf2\x1fA'
p755
tp756
Rp757
ag729
ag732
ag48
(g52
S'\x7f?&\x96\xfa\xa2\x1fA'
p758
tp759
Rp760
ag661
ag738
ag741
ag744
ag673
ag676
ag679
ag48
(g52
S'7\xeeKy6\xc0\x1fA'
p761
tp762
Rp763
ag685
asI10
(lp764
g48
(g52
S'\xc0\x04{\xd7\x81\xe1\x1fA'
p765
tp766
Rp767
ag48
(g52
S'\xe6\xc7}\x0b\x9b^\x1fA'
p768
tp769
Rp770
ag48
(g52
S'\xb9\xa6\xca?>\x96\x1fA'
p771
tp772
Rp773
ag48
(g52
S'\xca\xb0\x19\xfc\x19\x1b\x1fA'
p774
tp775
Rp776
ag48
(g52
S'uGM%&\xbb\x1fA'
p777
tp778
Rp779
ag48
(g52
S'M"E\xeb\xcb? A'
p780
tp781
Rp782
ag48
(g52
S'0~\x17\x03\xc82 A'
p783
tp784
Rp785
ag48
(g52
S'SQ \xf0#\x13 A'
p786
tp787
Rp788
ag48
(g52
S'\xe6\xab\x00k^\xa9\x1fA'
p789
tp790
Rp791
ag48
(g52
S'k\xad/\xb5\xe9\x08 A'
p792
tp793
Rp794
ag48
(g52
S'\x816PR\x93\x0b A'
p795
tp796
Rp797
ag48
(g52
S'#g\xb2469\x1fA'
p798
tp799
Rp800
ag48
(g52
S'\xb6\xebHWY>\x1fA'
p801
tp802
Rp803
ag48
(g52
S'z\xe3\xaf\xbf\xa1j\x1fA'
p804
tp805
Rp806
ag48
(g52
S'Q\x93_Q\xc2\x1a A'
p807
tp808
Rp809
ag48
(g52
S'\x0297\xc7_\xa2\x1fA'
p810
tp811
Rp812
ag48
(g52
S'\xf0W\xc9Aii\x1eA'
p813
tp814
Rp815
ag48
(g52
S'\\\xc4?a\xb2E\x1fA'
p816
tp817
Rp818
ag48
(g52
S'\xba914D6 A'
p819
tp820
Rp821
ag48
(g52
S'\xa2\xa6\xf4\xa2x\xbc\x1eA'
p822
tp823
Rp824
asI10000
(lp825
g751
ag48
(g52
S'y\xa2\xdb\x84\xf0\x1d\x1fA'
p826
tp827
Rp828
ag717
ag637
ag695
ag754
ag723
ag757
ag729
ag732
ag760
ag661
ag738
ag741
ag744
ag673
ag676
ag679
ag763
ag685
asI50
(lp829
g48
(g52
S'\xfc\x06\xeaq\x80\xe0\x1fA'
p830
tp831
Rp832
ag48
(g52
S'\x89\x10\xfb^k^\x1fA'
p833
tp834
Rp835
ag48
(g52
S'\x1fxK$\x98\x95\x1fA'
p836
tp837
Rp838
ag48
(g52
S'm*\xb1\x0e\xc7\x19\x1fA'
p839
tp840
Rp841
ag48
(g52
S'\x0cy{\\|\xb9\x1fA'
p842
tp843
Rp844
ag48
(g52
S'#\x9e\xb5\x06\x88? A'
p845
tp846
Rp847
ag48
(g52
S'\xedd\x9b\xe5D2 A'
p848
tp849
Rp850
ag48
(g52
S'\x98\xb7\x1cX\xb5\x12 A'
p851
tp852
Rp853
ag48
(g52
S'?)\xd1\xb9\xee\xa8\x1fA'
p854
tp855
Rp856
ag48
(g52
S'\xb9\xff Jq\x08 A'
p857
tp858
Rp859
ag48
(g52
S'y\xca\xe8\xa7m\x0b A'
p860
tp861
Rp862
ag48
(g52
S'\xf2>t\x17!7\x1fA'
p863
tp864
Rp865
ag48
(g52
S'\xb9\xbf\xfd\x92\xcf<\x1fA'
p866
tp867
Rp868
ag48
(g52
S';u&\xfe\xa8h\x1fA'
p869
tp870
Rp871
ag48
(g52
S'G\xbbT[\x80\x1a A'
p872
tp873
Rp874
ag48
(g52
S'\xfb\x94\x9a\x02\xaa\xa1\x1fA'
p875
tp876
Rp877
ag48
(g52
S'#\xf0\xc5G\x92h\x1eA'
p878
tp879
Rp880
ag48
(g52
S'\x17\x88\\\xd0IE\x1fA'
p881
tp882
Rp883
ag48
(g52
S' \x15\x0c\xb5\xdf5 A'
p884
tp885
Rp886
ag48
(g52
S'\xbc\xa9>\xf1\x08\xbc\x1eA'
p887
tp888
Rp889
asssI2
(dp890
g13
(dp891
I100000
(lp892
F386969.3553126324
aF331997.4556247982
aF123000.38346110901
aF257291.56339641244
aF185834.8292565924
aF144488.25997860677
aF266109.09603641706
aF234202.22986560204
aF103542.07694420137
aF252798.17753115165
aF375197.9017507825
aF226868.09634822703
aF256312.95543507367
aF368664.9647041457
aF304890.75711081264
aF299684.6322302909
aF117540.53710590933
aF153924.93728950908
aF227127.02470726758
aF159373.47227250732
asI50000
(lp893
F391460.02231608686
aF356593.8385897399
aF134345.84674115846
aF257291.56339641244
aF219770.18507656895
aF171868.4864507501
aF346028.3870303107
aF251126.4126906373
aF103542.07694420137
aF338504.2647946581
aF390937.98030771496
aF226868.09634822703
aF256312.95543507367
aF368664.9647041457
aF327097.6141190385
aF299684.6322302909
aF168429.76540054157
aF153924.93728950908
aF231855.9039294141
aF159373.47227250732
asI100
(lp894
F416428.0761712122
aF412992.25758473057
aF280686.9168660325
aF519154.6588135941
aF533814.3252353971
aF336075.40152584616
aF520236.30394952424
aF256943.74880837236
aF103542.07694420137
aF341385.78124541783
aF512593.56348572875
aF443807.2959875183
aF438552.72573835216
aF368664.9647041457
aF327097.6141190385
aF429255.0128538474
aF168429.76540054157
aF401291.8649180573
aF379577.0909839194
aF544649.9687523991
asI1000
(lp895
F399977.7751345154
aF410701.5833128016
aF280686.9168660325
aF275283.27581506944
aF429666.47720936016
aF336075.40152584616
aF520236.30394952424
aF251126.4126906373
aF103542.07694420137
aF338504.2647946581
aF495554.31090389134
aF347188.40319433325
aF324281.28420438984
aF368664.9647041457
aF327097.6141190385
aF356322.8256066465
aF168429.76540054157
aF194377.17279076972
aF285990.64360162173
aF474215.9838115877
asI10
(lp896
F416874.8133023255
aF415353.75575592485
aF360026.4450086261
aF525609.4874127489
aF542126.3997811016
aF363500.71298856515
aF537573.8849669223
aF257637.67601318567
aF105005.50963475954
aF343042.6866259544
aF517065.5875506377
aF458042.6936751634
aF439661.00693938095
aF369035.8247861983
aF341651.04408314463
aF429686.2400217403
aF282281.869231164
aF403803.53759655356
aF380562.4836150341
aF548319.2334363842
asI10000
(lp897
F399977.7751345154
aF410701.5833128016
aF280686.9168660325
aF275283.27581506944
aF429666.47720936016
aF336075.40152584616
aF520236.30394952424
aF251126.4126906373
aF103542.07694420137
aF338504.2647946581
aF495554.31090389134
aF347188.40319433325
aF324281.28420438984
aF368664.9647041457
aF327097.6141190385
aF356322.8256066465
aF168429.76540054157
aF194377.17279076972
aF285990.64360162173
aF474215.9838115877
asI50
(lp898
F416428.07617134065
aF415185.20562917326
aF358647.7994315761
aF525205.9858371089
aF540949.5912006311
aF361587.34426852263
aF536540.5218661458
aF256943.74880856925
aF103542.07694461635
aF341385.78124588914
aF516169.7119571639
aF457598.79218111915
aF438552.72573866794
aF368664.964704252
aF341224.56224086654
aF429255.0520652087
aF281963.8309903163
aF401291.86491877335
aF379577.09098420234
aF547365.2705337841
assg15
(dp899
I100000
(lp900
F47654.99982203457
aF34142.606543368755
aF39757.8184041685
aF35784.97718838868
aF44114.21088816977
aF41423.09073889712
aF24520.366108269314
aF31876.843779121587
aF29901.5259084246
aF33653.319625001954
aF38380.60367732156
aF14087.929858991005
aF40461.68047877049
aF45682.59467010609
aF26993.339376100772
aF40624.44395022091
aF28768.409397725154
aF33865.118031612285
aF25074.83154660982
aF26276.966501858613
asI50000
(lp901
F47654.99982203457
aF34142.606543368755
aF39757.8184041685
aF35784.97718838868
aF44114.21088816977
aF41423.09073889712
aF24520.366108269314
aF31876.843779121587
aF29901.5259084246
aF33653.319625001954
aF42783.725698420625
aF14087.929858991005
aF40461.68047877049
aF45682.59467010609
aF41382.179262311365
aF40624.44395022091
aF28768.409397725154
aF33865.118031612285
aF25074.83154660982
aF26276.966501858613
asI100
(lp902
F124924.92631222498
aF108662.88052600015
aF146177.78196340072
aF298321.66481413116
aF174820.39741745137
aF277071.4575858797
aF285353.284418933
aF156139.9217133953
aF72798.01654005889
aF135944.1767607573
aF148345.59579067782
aF96498.37707847652
aF469258.63317016105
aF191474.22909399006
aF126087.59721575596
aF124536.19555743592
aF158745.5174915746
aF204864.7111688536
aF184166.2487324426
aF266206.95516607317
asI1000
(lp903
F75381.19383783053
aF87425.65913352817
aF59838.88314609566
aF99475.12625920982
aF50559.43050199917
aF109715.30182532198
aF75388.07476729855
aF71934.88246331448
aF63561.83889514346
aF131729.48631072443
aF77480.01287032414
aF94380.34231405288
aF71838.14434196576
aF52935.79047818581
aF50584.08978504657
aF66421.63399397381
aF60793.62102762588
aF95857.7503951212
aF65380.2344507189
aF103921.9600690596
asI10
(lp904
F124924.92631222498
aF178812.1588869882
aF268753.1134163303
aF407952.96862517745
aF185975.21216291294
aF461418.7395734153
aF463375.8018584507
aF160366.71488575416
aF287304.8893860765
aF135944.1767607573
aF154763.81195876852
aF112133.77853218869
aF520592.56419649196
aF351797.9802871683
aF212113.72117253853
aF200204.90610974998
aF242730.6689475002
aF241336.04277405466
aF257410.91517804234
aF392438.71029541077
asI10000
(lp905
F47654.99982203457
aF34142.606543368755
aF39757.8184041685
aF44326.09494142844
aF44114.21088816977
aF44667.40496574498
aF28783.5838069108
aF70033.29980740492
aF30747.357303832963
aF74887.59822392766
aF47347.850013608
aF32032.0961465407
aF68854.74279807333
aF45682.59467010609
aF50584.08978504657
aF40624.44395022091
aF48880.726905734526
aF51967.381465678955
aF61624.88018201495
aF63902.30229585978
asI50
(lp906
F124924.92631222498
aF152533.3099867018
aF265664.8175168707
aF298321.66481413116
aF174820.39741745137
aF403617.30295193807
aF319299.82024156314
aF160366.71488575416
aF186806.94552316828
aF135944.1767607573
aF154763.81195876852
aF112133.77853218869
aF484044.6128809805
aF191474.22909399006
aF212113.72117253853
aF124536.19555743592
aF242730.6689475002
aF239874.839555378
aF240262.6099346487
aF321501.10503175686
assg14
(dp907
I100000
(lp908
F560521.9979411359
aF559451.9682466051
aF570113.172400416
aF569813.2450007144
aF563424.8138547828
aF565040.4589436254
aF569983.9325125336
aF561954.4275113458
aF561297.0628193901
aF571089.9844934106
aF565717.2540787727
aF570816.2353363294
aF572012.8093386798
aF561123.5795283162
aF567027.084581821
aF560085.2002181839
aF563544.0523913399
aF566213.0014193068
aF569410.2673217641
aF565722.5074860755
asI50000
(lp909
F560521.9979411359
aF559451.9682466051
aF570473.6967199456
aF570533.5496920637
aF564510.4601718918
aF565040.4589436254
aF569983.9325125336
aF561954.4275113458
aF564979.9105234897
aF571089.9844934106
aF566685.6583926495
aF570816.2353363294
aF572588.7525848348
aF561123.5795283162
aF570011.3283877223
aF564034.8152133289
aF565172.349359123
aF566213.0014193068
aF569774.048927243
aF565722.5074860755
asI100
(lp910
F572813.2805293298
aF573625.7308872761
aF570473.6967199456
aF571206.2285926477
aF568361.2374821539
aF566427.0291971053
aF572010.7449594883
aF571260.7506585142
aF564979.9105234897
aF571396.0081299272
aF575566.5597241807
aF570821.4097711447
aF573671.9805008066
aF569446.993081274
aF571856.9764265402
aF574311.7453848082
aF573525.4064864336
aF570158.2189651765
aF572161.3745748298
aF565722.5074860756
asI1000
(lp911
F572813.2805293298
aF573625.7308872761
aF570473.6967199456
aF571206.2285926477
aF568197.2391354409
aF566427.0291971053
aF572010.7449594883
aF565793.7292757196
aF564979.9105234897
aF571185.3629987813
aF575566.5597241807
aF570821.4097711447
aF573671.9805008065
aF562171.6309536048
aF571856.9764265402
aF572825.0266716878
aF572595.4538644727
aF570158.2189651765
aF572161.3745748298
aF565722.5074860756
asI10
(lp912
F572842.248642565
aF574317.1402606807
aF571578.7488754519
aF571236.0367890944
aF568386.9802801849
aF566611.3493920749
aF572973.5366821688
aF571279.9015140872
aF567912.6096435316
aF571421.182041895
aF575893.0313227284
aF570874.0134096525
aF573706.7015621341
aF569482.4476185256
aF571863.9523367643
aF574341.6099737312
aF573547.9477921725
aF574568.0412706446
aF572429.4079210075
aF565743.819039917
asI10000
(lp913
F563909.8126045875
aF573625.7308872761
aF570473.6967199456
aF570533.5496920637
aF568197.2391354409
aF566427.0291971053
aF572010.7449594883
aF565793.7292757196
aF564979.9105234897
aF571185.3629987813
aF575566.5597241807
aF570821.4097711447
aF573635.6025804721
aF562171.6309536048
aF571479.8963222496
aF572825.0266716878
aF572595.4538644727
aF570158.2189651765
aF572161.3745748298
aF565722.5074860755
asI50
(lp914
F572813.2805293532
aF574303.9118735845
aF571535.851573607
aF571206.2285926563
aF568361.2374821617
aF566590.8982264024
aF572954.4631654723
aF571260.7506585304
aF567902.0037798418
aF571396.0081299375
aF575845.3506438823
aF570822.859807998
aF573671.9805008118
aF569446.9930812765
aF571856.9764265437
aF574311.7453848107
aF573525.4064864449
aF574517.5758910243
aF572379.0107870878
aF565722.5074860884
asssI6
(dp915
g13
(dp916
I100000
(lp917
g48
(g52
S's\x9e\xbd\xf9s\xee!@'
p918
tp919
Rp920
ag48
(g52
S'(#\xbc\x9f\xcd\xf0!@'
p921
tp922
Rp923
ag48
(g52
S'\xc22?\xd5r\xf0!@'
p924
tp925
Rp926
ag48
(g52
S'\x83\xb7\xddF\xf7\xe8!@'
p927
tp928
Rp929
ag48
(g52
S'\xbcY\x9e\xd6\xc6\xf0!@'
p930
tp931
Rp932
ag48
(g52
S'\n\xc4\xf0\xb7 \xef!@'
p933
tp934
Rp935
ag48
(g52
S'\xed\x8dK\x8c`\xec!@'
p936
tp937
Rp938
ag48
(g52
S'\xb9\xeb\xc2\xd79\xdb!@'
p939
tp940
Rp941
ag48
(g52
S'\x84#Ks=\xf0!@'
p942
tp943
Rp944
ag48
(g52
S'\xd4\xd3\xde\xc0i\xf8!@'
p945
tp946
Rp947
ag48
(g52
S'N\x8c\xed\xcc*\xec!@'
p948
tp949
Rp950
ag48
(g52
S'\xcen\xddq\x12\xf4!@'
p951
tp952
Rp953
ag48
(g52
S'\xc3gY\x1e\x11\xee!@'
p954
tp955
Rp956
ag48
(g52
S'\xd9\x86\xc5\xd7\xd7\xf5!@'
p957
tp958
Rp959
ag48
(g52
S't\x9a\xe8\xb4\x94\xf2!@'
p960
tp961
Rp962
ag48
(g52
S'\x90\x99z`\xa4\xf4!@'
p963
tp964
Rp965
ag48
(g52
S's\x9eqf\x9e\xed!@'
p966
tp967
Rp968
ag48
(g52
S'\xde\xd9\x1e\xe2/\xf2!@'
p969
tp970
Rp971
ag48
(g52
S'\xda@\xacU\xc0\xe8!@'
p972
tp973
Rp974
ag48
(g52
S'\x02)\xa3\x99\x80\xf0!@'
p975
tp976
Rp977
asI50000
(lp978
g48
(g52
S'\x92\x84\xd7\x1as\xf1!@'
p979
tp980
Rp981
ag48
(g52
S'\xa1_8h\xda\xf2!@'
p982
tp983
Rp984
ag48
(g52
S"f\x06\xc1'\xe7\xf4!@"
p985
tp986
Rp987
ag929
ag48
(g52
S'\x1cFX\xb1\x1a\xf5!@'
p988
tp989
Rp990
ag935
ag48
(g52
S'F\x12\xfd\x1f\xa2\xf4!@'
p991
tp992
Rp993
ag48
(g52
S'\x86\x99\x81i\x9e\xf4!@'
p994
tp995
Rp996
ag48
(g52
S'\x92R\xbb*\xb9\xf9!@'
p997
tp998
Rp999
ag947
ag48
(g52
S'\xa3B\x17X\xfb\xef!@'
p1000
tp1001
Rp1002
ag953
ag48
(g52
S'A\x8f:X\xa2\xf0!@'
p1003
tp1004
Rp1005
ag48
(g52
S'\x7f\x90\x1a{\xed\xf5!@'
p1006
tp1007
Rp1008
ag962
ag965
ag48
(g52
S'\xe1!S\x0f\x16\xee!@'
p1009
tp1010
Rp1011
ag48
(g52
S'\x0bf\xb8\x8c\xc9\xf3!@'
p1012
tp1013
Rp1014
ag974
ag977
asI100
(lp1015
g981
ag48
(g52
S'H\xc6\x8f\r\x14\xfe!@'
p1016
tp1017
Rp1018
ag48
(g52
S'\xfe~o\xce\xbe\xfa!@'
p1019
tp1020
Rp1021
ag929
ag48
(g52
S'\x10\xb6\xc0\xde\x06\xf7!@'
p1022
tp1023
Rp1024
ag48
(g52
S'\xdc\x10\xd1\x17\x0b\xf1!@'
p1025
tp1026
Rp1027
ag48
(g52
S'e:\xf3\x8e\xb1\xf7!@'
p1028
tp1029
Rp1030
ag48
(g52
S'\xb1\xcfmf\xf1\xf6!@'
p1031
tp1032
Rp1033
ag48
(g52
S'\x84\x99wH\t\xfc!@'
p1034
tp1035
Rp1036
ag947
ag48
(g52
S'\x95\xe8\xe9\x0c\xb1\xf7!@'
p1037
tp1038
Rp1039
ag48
(g52
S'\x18\x13;\x88\xf7\xf6!@'
p1040
tp1041
Rp1042
ag48
(g52
S'\xc9b\x9b\xfa\xdd\xf4!@'
p1043
tp1044
Rp1045
ag48
(g52
S':(@+\xa4\xfc!@'
p1046
tp1047
Rp1048
ag962
ag48
(g52
S'6\xd4\x80\x04\x00\xfb!@'
p1049
tp1050
Rp1051
ag48
(g52
S'\x0fq\x16\xdd\xb5\xf6!@'
p1052
tp1053
Rp1054
ag48
(g52
S'&\xc7\xefK\x99\xf5!@'
p1055
tp1056
Rp1057
ag48
(g52
S'/\x99\xb4]d\xec!@'
p1058
tp1059
Rp1060
ag48
(g52
S'\xf9.g\xd9x\xf4!@'
p1061
tp1062
Rp1063
asI1000
(lp1064
g981
ag48
(g52
S"\x12\x95'Gj\xfd!@"
p1065
tp1066
Rp1067
ag1021
ag929
ag1024
ag1027
ag48
(g52
S'd:\xf3\x8e\xb1\xf7!@'
p1068
tp1069
Rp1070
ag1033
ag1036
ag947
ag1039
ag1042
ag1045
ag1048
ag962
ag48
(g52
S'\xda\x10\xd7\xad\xe7\xf7!@'
p1071
tp1072
Rp1073
ag1054
ag1057
ag1060
ag1063
asI10
(lp1074
g48
(g52
S'\xb8\xa1\xb0\x11\xb0\xf6!@'
p1075
tp1076
Rp1077
ag48
(g52
S'\xef\x9c\xff\xb4\xb4\xff!@'
p1078
tp1079
Rp1080
ag48
(g52
S',\x9c\xb5\xc7\r\xff!@'
p1081
tp1082
Rp1083
ag48
(g52
S':f\xb1[\xcb\xed!@'
p1084
tp1085
Rp1086
ag48
(g52
S'w\x0c\x97\x17!\xfc!@'
p1087
tp1088
Rp1089
ag48
(g52
S'\xe4 ?Um\xfb!@'
p1090
tp1091
Rp1092
ag48
(g52
S'\xf6\x9c\xbd\xf8\xc8\xf8!@'
p1093
tp1094
Rp1095
ag48
(g52
S'_\x9a]\x0b\x8f\xf8!@'
p1096
tp1097
Rp1098
ag48
(g52
S'E\xdc\x92k\x88\xfd!@'
p1099
tp1100
Rp1101
ag48
(g52
S'X4\xa9\xbfz\xfd!@'
p1102
tp1103
Rp1104
ag48
(g52
S'\xe4&\x0c,s\xf9!@'
p1105
tp1106
Rp1107
ag48
(g52
S']\xca\x9a\x939\xfe!@'
p1108
tp1109
Rp1110
ag48
(g52
S'\x0ext\x1fy\xfa!@'
p1111
tp1112
Rp1113
ag48
(g52
S'5.\x01r\xd7\xfe!@'
p1114
tp1115
Rp1116
ag48
(g52
S'\xfa\xd9\x96\x87\xc9\xf4!@'
p1117
tp1118
Rp1119
ag48
(g52
S'"\xa5Wq\x91\xfc!@'
p1120
tp1121
Rp1122
ag48
(g52
S'_R\xf2\xde\xb3\xfe!@'
p1123
tp1124
Rp1125
ag48
(g52
S'\xdb\x812\x14\x19\xfe!@'
p1126
tp1127
Rp1128
ag48
(g52
S'\x13ins\xe1\xfa!@'
p1129
tp1130
Rp1131
ag48
(g52
S'\xd7 }\xb2\x15\xfc!@'
p1132
tp1133
Rp1134
asI10000
(lp1135
g981
ag1067
ag1021
ag929
ag1024
ag1027
ag993
ag1033
ag1036
ag947
ag1039
ag1042
ag1045
ag1048
ag962
ag1073
ag1054
ag1057
ag1060
ag1063
asI50
(lp1136
g48
(g52
S'\n\xe2\xff`\x89\xf5!@'
p1137
tp1138
Rp1139
ag48
(g52
S'\x84\xd8\x8f\r\x14\xfe!@'
p1140
tp1141
Rp1142
ag48
(g52
S'L\xbauG\x82\xfb!@'
p1143
tp1144
Rp1145
ag48
(g52
S'\x16\xc6\xddF\xf7\xe8!@'
p1146
tp1147
Rp1148
ag48
(g52
S'8\x91\xe6\x9d&\xf8!@'
p1149
tp1150
Rp1151
ag48
(g52
S'\xd2\x86\x9fW\xe0\xf9!@'
p1152
tp1153
Rp1154
ag48
(g52
S'j`\xf3\x8e\xb1\xf7!@'
p1155
tp1156
Rp1157
ag48
(g52
S'_\x85\xd3\xee,\xf7!@'
p1158
tp1159
Rp1160
ag48
(g52
S";\xd6'\x90<\xfc!@"
p1161
tp1162
Rp1163
ag48
(g52
S'\x13\xf2\xde\xc0i\xf8!@'
p1164
tp1165
Rp1166
ag48
(g52
S'a\xd6l\xce\xba\xf7!@'
p1167
tp1168
Rp1169
ag48
(g52
S'sv\n\xb21\xf7!@'
p1170
tp1171
Rp1172
ag48
(g52
S'\x13s\x02\x99\xdb\xf6!@'
p1173
tp1174
Rp1175
ag48
(g52
S'\xde\xe1Q\xb6e\xfe!@'
p1176
tp1177
Rp1178
ag48
(g52
S'\xcd\xad\xe8\xb4\x94\xf2!@'
p1179
tp1180
Rp1181
ag48
(g52
S'\x86\xe2,\xab\x04\xfb!@'
p1182
tp1183
Rp1184
ag48
(g52
S'\xb5RS4\xcf\xf8!@'
p1185
tp1186
Rp1187
ag48
(g52
S'\x92P8\xb13\xfd!@'
p1188
tp1189
Rp1190
ag48
(g52
S'8\xb4\x1d2\xe3\xf0!@'
p1191
tp1192
Rp1193
ag48
(g52
S'0\xb3\x9b*,\xfb!@'
p1194
tp1195
Rp1196
assg15
(dp1197
I100000
(lp1198
g48
(g52
S'>\x87\xecR\xb6\xbe!@'
p1199
tp1200
Rp1201
ag48
(g52
S'\x1f\x82\xffn\x80\xc1!@'
p1202
tp1203
Rp1204
ag48
(g52
S'\x93\xbdG\xc1\xc2\xd1!@'
p1205
tp1206
Rp1207
ag48
(g52
S'_g\x9f+j\xb8!@'
p1208
tp1209
Rp1210
ag48
(g52
S'\xe2p\xde\xdb)\xb9!@'
p1211
tp1212
Rp1213
ag48
(g52
S'\xd8\x13\xf7\x1a\xbc\xc6!@'
p1214
tp1215
Rp1216
ag48
(g52
S'n\x93~\xb5e\xcd!@'
p1217
tp1218
Rp1219
ag48
(g52
S's\xc2\x0f\x07.\xd1!@'
p1220
tp1221
Rp1222
ag48
(g52
S'\xb9\xc0f\x9b\xd5\xcf!@'
p1223
tp1224
Rp1225
ag48
(g52
S'\xdf\xfe5\xab\xb7\xc2!@'
p1226
tp1227
Rp1228
ag48
(g52
S'\xc1c\xe8\xd5\xe5\xcf!@'
p1229
tp1230
Rp1231
ag48
(g52
S'F\xff\xf7~\xee\xca!@'
p1232
tp1233
Rp1234
ag48
(g52
S'\xb1*\xe2\xbdh\xcf!@'
p1235
tp1236
Rp1237
ag48
(g52
S':5.8\xda\xc4!@'
p1238
tp1239
Rp1240
ag48
(g52
S'\x08\xe1,O\xa3\xc2!@'
p1241
tp1242
Rp1243
ag48
(g52
S'E^k\xeb\xfd\xce!@'
p1244
tp1245
Rp1246
ag48
(g52
S'\x90}&\xa9\xe8\xce!@'
p1247
tp1248
Rp1249
ag48
(g52
S'\xd1\xad\x013\xce\xcf!@'
p1250
tp1251
Rp1252
ag48
(g52
S'\xed\xd0`\xb6z\xba!@'
p1253
tp1254
Rp1255
ag48
(g52
S'U\x0e\xff\x8c\x0e\xce!@'
p1256
tp1257
Rp1258
asI50000
(lp1259
g1201
ag1204
ag1207
ag48
(g52
S'\x00"\xb6L`\xd0!@'
p1260
tp1261
Rp1262
ag48
(g52
S'\xec\x92\xf6\xac\x1c\xcb!@'
p1263
tp1264
Rp1265
ag1216
ag1219
ag1222
ag1225
ag48
(g52
S'h\xf5}\xed)\xcb!@'
p1266
tp1267
Rp1268
ag48
(g52
S'\xc8\xe5\xe9|5\xd2!@'
p1269
tp1270
Rp1271
ag1234
ag1237
ag1240
ag48
(g52
S'\x01\xa7\x1e#O\xc7!@'
p1272
tp1273
Rp1274
ag1246
ag1249
ag1252
ag48
(g52
S'\xdb\xff\xa7\x8cu\xd0!@'
p1275
tp1276
Rp1277
ag1258
asI100
(lp1278
g48
(g52
S'e\x13\xeb\x12\x1c\xf0!@'
p1279
tp1280
Rp1281
ag48
(g52
S'@\xda\x01td\xf2!@'
p1282
tp1283
Rp1284
ag48
(g52
S'\x95F\xa3M\xe0\xf2!@'
p1285
tp1286
Rp1287
ag48
(g52
S'\x99g:\xdf\xa0\xef!@'
p1288
tp1289
Rp1290
ag48
(g52
S'*\x9b\xbe\xd2y\xf0!@'
p1291
tp1292
Rp1293
ag48
(g52
S'\x0bY\xae\x0e\xb9\xf1!@'
p1294
tp1295
Rp1296
ag48
(g52
S'\xa5\xc3\x92\x07\x0c\xfa!@'
p1297
tp1298
Rp1299
ag48
(g52
S'F\x14U75\xea!@'
p1300
tp1301
Rp1302
ag48
(g52
S'Fjt\xd4\x1c\xfb!@'
p1303
tp1304
Rp1305
ag48
(g52
S'~\xf2\x8936\xf2!@'
p1306
tp1307
Rp1308
ag48
(g52
S'd\xcb\xb6\xaaL\xf0!@'
p1309
tp1310
Rp1311
ag48
(g52
S'\x1f\xaf\xd3\xa7Q\xce!@'
p1312
tp1313
Rp1314
ag48
(g52
S'\xdb\x07\xdf\xff\x82\xf0!@'
p1315
tp1316
Rp1317
ag48
(g52
S'O\x14n\x1f\x07\xf0!@'
p1318
tp1319
Rp1320
ag48
(g52
S'\xca^\x98\xce\xe1\xf9!@'
p1321
tp1322
Rp1323
ag48
(g52
S'\x1c*\xcc\xcb\x15\xf9!@'
p1324
tp1325
Rp1326
ag48
(g52
S'\xe6\xb7\\:\x93\xee!@'
p1327
tp1328
Rp1329
ag48
(g52
S'\nH\xb5C\xdc\xf7!@'
p1330
tp1331
Rp1332
ag48
(g52
S'[KSy%\xf0!@'
p1333
tp1334
Rp1335
ag48
(g52
S'\xb4Y\xf7x\xd2\xeb!@'
p1336
tp1337
Rp1338
asI1000
(lp1339
g48
(g52
S'?\x81D\xe1\x9a\xea!@'
p1340
tp1341
Rp1342
ag48
(g52
S'\xd8\xc3LH-\xee!@'
p1343
tp1344
Rp1345
ag48
(g52
S'9\xceY\x19\x00\xd5!@'
p1346
tp1347
Rp1348
ag48
(g52
S'\x14\xb6\xf8\xeb%\xee!@'
p1349
tp1350
Rp1351
ag48
(g52
S'\x83U\x98\xa1\xe3\xe9!@'
p1352
tp1353
Rp1354
ag48
(g52
S'\x82\x16\x13\x1e?\xe6!@'
p1355
tp1356
Rp1357
ag48
(g52
S'L\xf3m\xa9\t\xe2!@'
p1358
tp1359
Rp1360
ag48
(g52
S'\xec\x91\xbb?\xba\xd1!@'
p1361
tp1362
Rp1363
ag48
(g52
S'h\xc7G\xc8k\xde!@'
p1364
tp1365
Rp1366
ag48
(g52
S'\x8f\x1b1"\x02\xd9!@'
p1367
tp1368
Rp1369
ag48
(g52
S'\xe1\xfe\xf7\xe8\x8d\xee!@'
p1370
tp1371
Rp1372
ag1234
ag48
(g52
S'\x88Q\n\xec\x1c\xeb!@'
p1373
tp1374
Rp1375
ag48
(g52
S'\xfd\x90x<\x15\xef!@'
p1376
tp1377
Rp1378
ag48
(g52
S'\xd3pZ\xd9/\xe0!@'
p1379
tp1380
Rp1381
ag48
(g52
S'\xe0\x88\xc7p_\xd4!@'
p1382
tp1383
Rp1384
ag48
(g52
S'\x9d\xb2\x9a\xb7;\xee!@'
p1385
tp1386
Rp1387
ag48
(g52
S'\xc7\x8f\xab\x9e\x0b\xf1!@'
p1388
tp1389
Rp1390
ag48
(g52
S'\xab\x1anLP\xe0!@'
p1391
tp1392
Rp1393
ag48
(g52
S'\xfbT3\xd64\xd9!@'
p1394
tp1395
Rp1396
asI10
(lp1397
g48
(g52
S'k\xe8\x98/Z\xf9!@'
p1398
tp1399
Rp1400
ag48
(g52
S'\xee\xd5vS\x89\xff!@'
p1401
tp1402
Rp1403
ag48
(g52
S'W\x91gC\xb2\xfa!@'
p1404
tp1405
Rp1406
ag48
(g52
S'\xb6\x85\xae\xbd\xc4\xff!@'
p1407
tp1408
Rp1409
ag48
(g52
S'1\x04\x88$\xaf\xfb!@'
p1410
tp1411
Rp1412
ag48
(g52
S'\xe2B\xe1&\x1a\xf6!@'
p1413
tp1414
Rp1415
ag48
(g52
S'\x1d%\xd0d\xfc\xff!@'
p1416
tp1417
Rp1418
ag48
(g52
S'\x8e\xbd\x95G\x1f\xf4!@'
p1419
tp1420
Rp1421
ag48
(g52
S'>\x91\xdb\x82\xbc\xfe!@'
p1422
tp1423
Rp1424
ag48
(g52
S'I\xae+Y\xf1\xfe!@'
p1425
tp1426
Rp1427
ag48
(g52
S'\x04\xdf\xd4\x97\xab\xf3!@'
p1428
tp1429
Rp1430
ag48
(g52
S'M\xd5W\xd7\x90\xf3!@'
p1431
tp1432
Rp1433
ag48
(g52
S'm\x06\x1ed\xb5\xff!@'
p1434
tp1435
Rp1436
ag48
(g52
S'\x86\x82e\xe3\xd1\xfd!@'
p1437
tp1438
Rp1439
ag48
(g52
S'\x9d\xb5\xd7\xac\xaa\xff!@'
p1440
tp1441
Rp1442
ag48
(g52
S'\xa4_fv<\xfe!@'
p1443
tp1444
Rp1445
ag48
(g52
S'\x95\xf9\xad\xbb5\xfa!@'
p1446
tp1447
Rp1448
ag48
(g52
S'\xc8\xaa\xdd\x08\xf9\xfc!@'
p1449
tp1450
Rp1451
ag48
(g52
S'\xb5\xf1S\x14\x99\xfd!@'
p1452
tp1453
Rp1454
ag48
(g52
S'\x18\xfc\x91\xa5\xf3\xf1!@'
p1455
tp1456
Rp1457
asI10000
(lp1458
g48
(g52
S',Y\xbb\xb6\xb6\xd4!@'
p1459
tp1460
Rp1461
ag48
(g52
S'\x89\x80U{>\xd3!@'
p1462
tp1463
Rp1464
ag48
(g52
S'\x02\xfe\xc2\xd0\x91\xd3!@'
p1465
tp1466
Rp1467
ag48
(g52
S'\xac\x08\xccZ\x93\xd3!@'
p1468
tp1469
Rp1470
ag48
(g52
S'\x04\x13\x86\x1a9\xd7!@'
p1471
tp1472
Rp1473
ag48
(g52
S']\xe6\x96\x83\x97\xd3!@'
p1474
tp1475
Rp1476
ag1219
ag1222
ag48
(g52
S'\xf8\x07\xe91\xe6\xd0!@'
p1477
tp1478
Rp1479
ag48
(g52
S'\x18|\xc4D4\xd6!@'
p1480
tp1481
Rp1482
ag48
(g52
S'\x87R\xde\xfe\xa5\xd2!@'
p1483
tp1484
Rp1485
ag1234
ag48
(g52
S'\xec~\x0b\x983\xd3!@'
p1486
tp1487
Rp1488
ag1240
ag48
(g52
S'QmZ\xb1W\xd1!@'
p1489
tp1490
Rp1491
ag1246
ag48
(g52
S'V\x0f9\xb3\xa1\xd2!@'
p1492
tp1493
Rp1494
ag1252
ag48
(g52
S'\x15\xab\xeer\x97\xd2!@'
p1495
tp1496
Rp1497
ag48
(g52
S'\x9f\xa5\x90x\x83\xd2!@'
p1498
tp1499
Rp1500
asI50
(lp1501
g48
(g52
S'v\xb7\x85\x93\x17\xf1!@'
p1502
tp1503
Rp1504
ag48
(g52
S'\x03\x86i\x1d_\xf6!@'
p1505
tp1506
Rp1507
ag48
(g52
S'\x9f3n\x89;\xf3!@'
p1508
tp1509
Rp1510
ag48
(g52
S'T\xacJr\xfc\xfa!@'
p1511
tp1512
Rp1513
ag1293
ag48
(g52
S'\xdd;0\x1e\x87\xf4!@'
p1514
tp1515
Rp1516
ag48
(g52
S'Qf\t\x97\xb7\xff!@'
p1517
tp1518
Rp1519
ag1302
ag48
(g52
S'\x1a\xd13\n/\xfb!@'
p1520
tp1521
Rp1522
ag1308
ag48
(g52
S'\x82/\xb2Q9\xf2!@'
p1523
tp1524
Rp1525
ag48
(g52
S'\x13\xcc\xd2=\xe5\xeb!@'
p1526
tp1527
Rp1528
ag48
(g52
S'\xe7\xf3\xddK(\xfa!@'
p1529
tp1530
Rp1531
ag48
(g52
S'J\xb9O\x05\xda\xf0!@'
p1532
tp1533
Rp1534
ag1323
ag48
(g52
S'\x04\xd8\x8c\xad\x94\xfb!@'
p1535
tp1536
Rp1537
ag48
(g52
S'l@\xfa\xd9\xca\xf3!@'
p1538
tp1539
Rp1540
ag48
(g52
S'y\xc3zo\xe1\xf9!@'
p1541
tp1542
Rp1543
ag1335
ag1338
assg14
(dp1544
I100000
(lp1545
g48
(g52
S'\xf2TN\xc2\xaf\xf1!@'
p1546
tp1547
Rp1548
ag48
(g52
S'\x14\xac\x05\x93A\xf0!@'
p1549
tp1550
Rp1551
ag48
(g52
S'\xae+f\xb3m\xf5!@'
p1552
tp1553
Rp1554
ag48
(g52
S'l\x12\x12V{\xee!@'
p1555
tp1556
Rp1557
ag48
(g52
S'\xf0K\x12I\xe3\xe3!@'
p1558
tp1559
Rp1560
ag48
(g52
S'\xcc@@|\x89\xf2!@'
p1561
tp1562
Rp1563
ag48
(g52
S'N\x10\x90d\x82\xe7!@'
p1564
tp1565
Rp1566
ag48
(g52
S'\xf0:\x1c!\xca\xf1!@'
p1567
tp1568
Rp1569
ag48
(g52
S'\xb9\x1c\xdf\x85Q\xed!@'
p1570
tp1571
Rp1572
ag48
(g52
S'M]J>x\xed!@'
p1573
tp1574
Rp1575
ag48
(g52
S'\xdar\x0eq\x1c\xd0!@'
p1576
tp1577
Rp1578
ag48
(g52
S'\xf7\xa3\x00\xdc\xc1\xde!@'
p1579
tp1580
Rp1581
ag48
(g52
S'\xbd\xb4\xb0\x04\xf9\xef!@'
p1582
tp1583
Rp1584
ag48
(g52
S'qk\x8e\xd8\xab\xe7!@'
p1585
tp1586
Rp1587
ag48
(g52
S'`n\x03R\x1a\xf0!@'
p1588
tp1589
Rp1590
ag48
(g52
S'K\xa2I\x0e\xff\xec!@'
p1591
tp1592
Rp1593
ag48
(g52
S']\x04\n\x9f2\xe9!@'
p1594
tp1595
Rp1596
ag48
(g52
S'\xb1\xc8\xc0\x95\x06\xf2!@'
p1597
tp1598
Rp1599
ag48
(g52
S'\xf2\x987\xd7\x85\xf0!@'
p1600
tp1601
Rp1602
ag48
(g52
S'\x02\xe6qA\x0b\xf2!@'
p1603
tp1604
Rp1605
asI50000
(lp1606
g1548
ag1551
ag48
(g52
S'\x9a\xfd\xdb\xe1\xe4\xf9!@'
p1607
tp1608
Rp1609
ag1557
ag1560
ag48
(g52
S'\xb0\xdf\x00\xe5\xc8\xf2!@'
p1610
tp1611
Rp1612
ag1566
ag48
(g52
S'\xc5\xd1\x9c\x92\x02\xf3!@'
p1613
tp1614
Rp1615
ag48
(g52
S'\x1a\x9d#\x90]\xed!@'
p1616
tp1617
Rp1618
ag1575
ag48
(g52
S'DYH\xd1\\\xe5!@'
p1619
tp1620
Rp1621
ag1581
ag48
(g52
S'\xeeW|\x98\xb5\xfb!@'
p1622
tp1623
Rp1624
ag48
(g52
S'\x97\x96T\xeco\xea!@'
p1625
tp1626
Rp1627
ag1590
ag48
(g52
S']#e\xc6#\xf0!@'
p1628
tp1629
Rp1630
ag48
(g52
S'\x90M\x86k\xcd\xef!@'
p1631
tp1632
Rp1633
ag1599
ag48
(g52
S'$u\xed]Q\xf3!@'
p1634
tp1635
Rp1636
ag48
(g52
S'\x84 \xbc\xe4L\xf2!@'
p1637
tp1638
Rp1639
asI100
(lp1640
g48
(g52
S'\x85\xb71\x0b\xb2\xf2!@'
p1641
tp1642
Rp1643
ag48
(g52
S'\x0f\xce\x1a\xd8\xd0\xf9!@'
p1644
tp1645
Rp1646
ag48
(g52
S'\xc6\xfdY\x07\xf4\xf9!@'
p1647
tp1648
Rp1649
ag1557
ag1560
ag48
(g52
S'a\x19\xd7\x9be\xfb!@'
p1650
tp1651
Rp1652
ag48
(g52
S'>i\xfei\x91\xf2!@'
p1653
tp1654
Rp1655
ag48
(g52
S'\x16\x167\n\x02\xff!@'
p1656
tp1657
Rp1658
ag1618
ag48
(g52
S'\xb2\xfa\x9b\x87y\xf1!@'
p1659
tp1660
Rp1661
ag1621
ag48
(g52
S'\x8a\x1f\xdac`\xe2!@'
p1662
tp1663
Rp1664
ag48
(g52
S'Af\xf1"\xee\xfd!@'
p1665
tp1666
Rp1667
ag48
(g52
S'!l\xde\xb5l\xf4!@'
p1668
tp1669
Rp1670
ag48
(g52
S'\xd0\xe9\n\xcd\x80\xf9!@'
p1671
tp1672
Rp1673
ag48
(g52
S'I\x89\x18\x85\xd6\xfb!@'
p1674
tp1675
Rp1676
ag48
(g52
S'\xb5\xf7\xc6O\xf7\xf9!@'
p1677
tp1678
Rp1679
ag48
(g52
S'Lo\xca\x1f\xb5\xfe!@'
p1680
tp1681
Rp1682
ag48
(g52
S'\r!\xec_a\xf5!@'
p1683
tp1684
Rp1685
ag48
(g52
S'\x0c\xfa\xb8I\xcf\xf3!@'
p1686
tp1687
Rp1688
asI1000
(lp1689
g1643
ag1646
ag1649
ag1557
ag1560
ag1652
ag48
(g52
S'=i\xfei\x91\xf2!@'
p1690
tp1691
Rp1692
ag48
(g52
S'`\xd4\xc8I?\xfc!@'
p1693
tp1694
Rp1695
ag1618
ag1661
ag1621
ag1664
ag1667
ag1670
ag48
(g52
S'\x83\xf1\x05\xe5\x8b\xf2!@'
p1696
tp1697
Rp1698
ag1676
ag1679
ag1682
ag1685
ag1639
asI10
(lp1699
g48
(g52
S'\xef$^\x94\x0f\xf5!@'
p1700
tp1701
Rp1702
ag48
(g52
S'(T\t\xb5\r\xfa!@'
p1703
tp1704
Rp1705
ag48
(g52
S'\x971\x9bg%\xfa!@'
p1706
tp1707
Rp1708
ag48
(g52
S'\x0e\xc1C-s\xef!@'
p1709
tp1710
Rp1711
ag48
(g52
S'zR\x08\rc\xe4!@'
p1712
tp1713
Rp1714
ag48
(g52
S'\x1e\xe7\xc5\x91\xcf\xfc!@'
p1715
tp1716
Rp1717
ag48
(g52
S'\xb0Q\xb5s\xa6\xf2!@'
p1718
tp1719
Rp1720
ag48
(g52
S'dWh\xc2[\xff!@'
p1721
tp1722
Rp1723
ag48
(g52
S'V\x9ds\xb6\x1a\xee!@'
p1724
tp1725
Rp1726
ag48
(g52
S'|\x83\x08\xcd\xac\xf1!@'
p1727
tp1728
Rp1729
ag48
(g52
S'\xe3\x8dW\xfa\x7f\xee!@'
p1730
tp1731
Rp1732
ag48
(g52
S'\x99\x90\xf3\x00\xb2\xf9!@'
p1733
tp1734
Rp1735
ag48
(g52
S'E\x8c&\xf6=\xfe!@'
p1736
tp1737
Rp1738
ag48
(g52
S'v\xc4L\xdd\xb0\xf4!@'
p1739
tp1740
Rp1741
ag48
(g52
S'\xe3\x12\xcf\x12\x00\xfb!@'
p1742
tp1743
Rp1744
ag48
(g52
S'\x95\xa5\xe3\xd4u\xfd!@'
p1745
tp1746
Rp1747
ag48
(g52
S',\xfa$R\xb5\xfb!@'
p1748
tp1749
Rp1750
ag48
(g52
S'\xd7\x9ao\xba\x0e\xff!@'
p1751
tp1752
Rp1753
ag48
(g52
S'\x0c\x91\xd8\xd6\x87\xf5!@'
p1754
tp1755
Rp1756
ag48
(g52
S'0\x08\xa6\xb4\xa3\xf4!@'
p1757
tp1758
Rp1759
asI10000
(lp1760
g1643
ag48
(g52
S'\xf8\xbf3\x83K\xf4!@'
p1761
tp1762
Rp1763
ag1609
ag1557
ag1560
ag1652
ag48
(g52
S'+u\x1c\xc9\x13\xea!@'
p1764
tp1765
Rp1766
ag1695
ag1618
ag48
(g52
S'\xbdk\xa8\xac\xb7\xf0!@'
p1767
tp1768
Rp1769
ag1621
ag1664
ag48
(g52
S"d\xa92'\xe9\xfd!@"
p1770
tp1771
Rp1772
ag1627
ag1698
ag1676
ag1679
ag48
(g52
S'\x01\xb9\xbbzF\xf8!@'
p1773
tp1774
Rp1775
ag1636
ag1639
asI50
(lp1776
g48
(g52
S'\xd1~\xd46\xd1\xf4!@'
p1777
tp1778
Rp1779
ag48
(g52
S'a\xce\x1a\xd8\xd0\xf9!@'
p1780
tp1781
Rp1782
ag48
(g52
S'\xf5\xfdY\x07\xf4\xf9!@'
p1783
tp1784
Rp1785
ag48
(g52
S'\xb5\x12\x12V{\xee!@'
p1786
tp1787
Rp1788
ag48
(g52
S'GL\x12I\xe3\xe3!@'
p1789
tp1790
Rp1791
ag48
(g52
S'\xaeu\xa1\x00\x0f\xfc!@'
p1792
tp1793
Rp1794
ag48
(g52
S'\xf8i\xfei\x91\xf2!@'
p1795
tp1796
Rp1797
ag48
(g52
S'"\x167\n\x02\xff!@'
p1798
tp1799
Rp1800
ag48
(g52
S'd5\x96kt\xed!@'
p1801
tp1802
Rp1803
ag48
(g52
S'\xd5\xfa\x9b\x87y\xf1!@'
p1804
tp1805
Rp1806
ag48
(g52
S'I\x8b\xa7\x1eC\xee!@'
p1807
tp1808
Rp1809
ag48
(g52
S'\x9d\x00^\xbb\x12\xf9!@'
p1810
tp1811
Rp1812
ag48
(g52
S'\x9df\xf1"\xee\xfd!@'
p1813
tp1814
Rp1815
ag48
(g52
S'Tl\xde\xb5l\xf4!@'
p1816
tp1817
Rp1818
ag48
(g52
S'\xb7\x1f\xa7A=\xfa!@'
p1819
tp1820
Rp1821
ag48
(g52
S'9\xf3yVG\xfd!@'
p1822
tp1823
Rp1824
ag48
(g52
S'\xaf\xb9\xfa\xb9Q\xfb!@'
p1825
tp1826
Rp1827
ag48
(g52
S'}o\xca\x1f\xb5\xfe!@'
p1828
tp1829
Rp1830
ag48
(g52
S'P!\xec_a\xf5!@'
p1831
tp1832
Rp1833
ag48
(g52
S'F\xb5>\xe5\xd5\xf3!@'
p1834
tp1835
Rp1836
assssS'id'
p1837
I3
s.