(dp0
S'name'
p1
S'effective-dimension'
p2
sS'settings'
p3
(dp4
S'num_runs'
p5
I20
sS'problems'
p6
(lp7
I1
aI2
aI6
aI8
asS'v'
p8
I10000
sS'm'
p9
I5
sS'n'
p10
I10000
ssS'algs'
p11
(lp12
S'RESOO'
p13
aS'SRESOO'
p14
aS'EmbeddedHunter'
p15
asS'at'
p16
(lp17
I2
aI5
aI10
aI20
aI50
aI75
asS'data'
p18
(dp19
I8
(dp20
g13
(dp21
I2
(lp22
F6.592151704125865
aF6.738578068353277
aF6.640597525938954
aF7.395153350056946
aF7.543781757423549
aF6.620360846841965
aF6.562256620382602
aF6.85005985398198
aF7.013545267664597
aF6.597368205125104
aF6.754879561834102
aF6.7235635629969455
aF6.569226146145024
aF6.572042919572819
aF7.966852188468753
aF7.256568087489155
aF7.024958785664884
aF6.56649519763954
aF6.565678221421894
aF7.331092832686728
asI5
(lp23
F7.003489334985106
aF6.7982443913953645
aF7.547869417273784
aF6.6068120864196445
aF6.973169037098334
aF7.667403741424064
aF7.848945607932533
aF7.276810817434868
aF7.606543832756772
aF6.1936239328997225
aF7.258372792355965
aF7.1774576408288375
aF6.894467625805113
aF7.570303934145057
aF7.444986275922227
aF6.977791466273379
aF7.492550197340444
aF6.873340388403992
aF7.426811423297465
aF7.509243553791883
asI10
(lp24
F7.5330693570346305
aF7.695090229096728
aF7.694092786070389
aF7.351276536675295
aF7.889938090726702
aF7.375501047823066
aF7.489306095985347
aF7.919580590501203
aF7.391664887786153
aF7.542484437148211
aF7.820795366997469
aF7.414642075080208
aF7.1796535987959125
aF7.571110440425105
aF7.575013067706312
aF8.22630245419781
aF8.162640994311031
aF8.043091232860618
aF8.186883096836008
aF7.7763558450520645
asI75
(lp25
F8.809689374370379
aF9.008303306347576
aF8.865639089881208
aF8.908094918079561
aF8.752263742424299
aF9.07386399136946
aF8.973133697458382
aF8.964019272583117
aF9.065156557948495
aF8.959007073419095
aF8.875221656723498
aF8.970635729899223
aF8.949445223790274
aF8.823358536628259
aF8.950751029811718
aF9.00025160462309
aF8.981612867294798
aF8.881611278695942
aF8.900137168092026
aF8.874302795129035
asI50
(lp26
F8.903869205668785
aF8.691577055338472
aF8.580994557864846
aF8.78830004987833
aF8.584464082080538
aF8.869374198410094
aF8.826190082637957
aF8.753778703628175
aF8.918957421220867
aF8.80132428135714
aF8.834921098997293
aF8.558535294935185
aF8.505093957525055
aF8.805807201194103
aF8.866246476418873
aF8.84582896439962
aF8.741533555528207
aF8.539736204352899
aF8.803328092612668
aF8.83777871938316
asI20
(lp27
F8.436369056581897
aF8.6568255797184
aF8.174169787523653
aF8.68314918093824
aF8.567537432281885
aF8.220851378816647
aF8.712755350781876
aF8.864685064657195
aF8.632475998599936
aF7.902696653664091
aF8.5527016041913
aF8.577115897861297
aF8.503605748060705
aF8.615221828169767
aF8.366801755748124
aF8.351467548840262
aF7.588436956459949
aF7.267809689276849
aF8.126568203894976
aF8.266107235921412
assg15
(dp28
I2
(lp29
F5.91019126255884
aF5.787957021021128
aF5.5459241866367925
aF5.785022634365941
aF5.560128266768842
aF5.448246033823061
aF5.392861288486156
aF6.033465659850908
aF5.448456328232545
aF5.863607511867787
aF6.096770923668096
aF5.674045153772344
aF6.203583127086745
aF5.524511091811398
aF5.875155658296457
aF5.548120698548413
aF5.803281483608281
aF6.052396948458405
aF5.479272781111316
aF5.5049410330055935
asI5
(lp30
F5.2274090118708045
aF5.340099372381342
aF5.502000368488549
aF5.57082431861954
aF5.280615429837354
aF4.823729628856686
aF4.928315199378673
aF3.9809434157570576
aF5.3573420984319675
aF4.807680695692895
aF4.919746617368883
aF5.528517150544182
aF5.181058888329485
aF4.929156468797064
aF4.841952690660062
aF4.549498294691148
aF5.140235777758477
aF5.020395917647523
aF5.081759952560546
aF4.816233058685299
asI10
(lp31
F5.841515984008588
aF5.760660557608173
aF5.559776198692656
aF5.92144569567699
aF5.951009502763316
aF4.470042305208885
aF5.026623478641017
aF5.7949203646820635
aF5.339795744117989
aF4.458406884504939
aF5.646564311510637
aF4.730506536147356
aF5.472908145312104
aF5.0586953002044055
aF4.255039397254574
aF5.704761071771088
aF5.902879994027536
aF5.551673486226278
aF5.220013480677299
aF5.691476192536054
asI75
(lp32
F8.537798256624349
aF8.557129041814564
aF8.62249692733238
aF8.604343823155226
aF8.675936150511095
aF8.60974007767522
aF8.603887873726812
aF8.49578225374232
aF8.58944428948005
aF8.478341401006766
aF8.626450264759335
aF8.504431665929015
aF8.6260492007151
aF8.636353537454884
aF8.525920610799748
aF8.587233104766534
aF8.649062994780572
aF8.615298318028707
aF8.632429976128636
aF8.608963874679985
asI50
(lp33
F8.364964472343551
aF8.417703488342148
aF8.36643600731545
aF8.245053238228316
aF8.455164627705457
aF8.20899878294394
aF8.395702727063389
aF8.102270014187516
aF8.461903461375444
aF8.40246729284206
aF8.384914223050046
aF8.46378071982403
aF8.301604279011293
aF8.415400414753002
aF8.425998855825835
aF8.401481582586081
aF8.397686232100693
aF8.363527444343067
aF8.437113994021189
aF8.340596822213012
asI20
(lp34
F7.3727783030743534
aF7.663225340205685
aF7.2446857388799994
aF7.35851061567544
aF6.7668372017682685
aF7.353074030449076
aF7.671500040891793
aF7.020941560578814
aF6.60473904559943
aF7.380096035096743
aF7.654913439204497
aF7.362919065204396
aF7.39357053286003
aF7.322008434292387
aF7.395858091846279
aF7.224288514220211
aF7.020091524370342
aF7.281494402247734
aF7.5265585648271145
aF7.3330155485301365
assg14
(dp35
I2
(lp36
F8.924269852413573
aF9.235812062501198
aF9.091468093793488
aF9.056016835787327
aF8.964377171242983
aF9.331540569629746
aF9.346869620189649
aF9.139428626213196
aF8.963046790262975
aF9.116361775645974
aF9.285055722406
aF9.210247665330261
aF9.083487526059898
aF9.10483395088965
aF9.132844508412798
aF9.12090928636115
aF9.20005921264516
aF9.330709674807583
aF9.203669102632732
aF9.09019769119154
asI5
(lp37
F9.346414779697431
aF9.286421028880323
aF9.200517939880385
aF9.307013284235522
aF9.231849513111609
aF9.13417308093945
aF9.249698973704424
aF9.335849297496182
aF9.252381737742018
aF9.34890591940316
aF9.250360529599735
aF9.335286996842557
aF9.33646051530759
aF9.21339440057572
aF9.285450496160509
aF9.285812446276967
aF9.276682213926424
aF9.279648774342679
aF9.207342852196248
aF9.298342224740269
asI10
(lp38
F9.357433869644249
aF9.320585781492522
aF9.345081776339537
aF9.297736927114398
aF9.365232351403963
aF9.21255204940782
aF9.35568355021688
aF9.320088390401995
aF9.30682298422686
aF9.354240910854829
aF9.349164616609581
aF9.330915907527405
aF9.343510681307732
aF9.341744535374065
aF9.372454455587924
aF9.349295571879841
aF9.354837218202906
aF9.330769660275726
aF9.355264387270049
aF9.320442199459485
asI75
(lp39
F9.440165821841132
aF9.425426623195946
aF9.403070963792215
aF9.409555887595147
aF9.421368713735758
aF9.401527649749234
aF9.411763985692625
aF9.430203401590246
aF9.398875973092752
aF9.440078056975167
aF9.41946060272946
aF9.392381864862267
aF9.43383272119011
aF9.415122752150097
aF9.408062590313756
aF9.427764677971089
aF9.429137272788642
aF9.422681740882256
aF9.417387820078867
aF9.426747253559045
asI50
(lp40
F9.421556366688224
aF9.39118327503024
aF9.399272849503651
aF9.41265678462527
aF9.395025332471196
aF9.408150859578353
aF9.421948728379382
aF9.390724306123056
aF9.40195013238137
aF9.400999764843606
aF9.40356027562757
aF9.379329110982763
aF9.401268253722279
aF9.411270379454477
aF9.395823009196482
aF9.41087741859584
aF9.365880594235332
aF9.4024799506355
aF9.417712363070628
aF9.408180840530038
asI20
(lp41
F9.391296014074817
aF9.3347357695804
aF9.338640715638805
aF9.365338870846086
aF9.397819017461366
aF9.347813180038136
aF9.35110854848651
aF9.346360696107183
aF9.39572755532719
aF9.34901441950571
aF9.396286882826006
aF9.364057442526342
aF9.40665462827025
aF9.335013458883484
aF9.382625309455845
aF9.370400537961997
aF9.391632990185611
aF9.40841396829595
aF9.34257116121511
aF9.397296176009126
asssI1
(dp42
g13
(dp43
I2
(lp44
cnumpy.core.multiarray
scalar
p45
(cnumpy
dtype
p46
(S'f8'
p47
I0
I1
tp48
Rp49
(I3
S'<'
p50
NNNI-1
I-1
I0
tp51
bS'*\x12\xe7S\xf3\x8e\x14A'
p52
tp53
Rp54
ag45
(g49
S"Q\xa1\xf6\xc5',\x14A"
p55
tp56
Rp57
ag45
(g49
S'\x8a.s4\xea\xfc\x11A'
p58
tp59
Rp60
ag45
(g49
S'b\\&xR\xea\x11A'
p61
tp62
Rp63
ag45
(g49
S'\x92\x15K\xe3z\xb0\x0eA'
p64
tp65
Rp66
ag45
(g49
S'\xb0}4o\xcaC\nA'
p67
tp68
Rp69
ag45
(g49
S'\xe6i\x1e\xcc\xa8\x19\x14A'
p70
tp71
Rp72
ag45
(g49
S'{\n|\xdcsc\x12A'
p73
tp74
Rp75
ag45
(g49
S'\x17\xda\x9d\x97J\xe1\x15A'
p76
tp77
Rp78
ag45
(g49
S'\xb6z\xb9\xd4\xfd\x94\x14A'
p79
tp80
Rp81
ag45
(g49
S'\xe2*\xb5S`\x86\x16A'
p82
tp83
Rp84
ag45
(g49
S'Tf<W\xf3g\x11A'
p85
tp86
Rp87
ag45
(g49
S'\xd5\xc8\x10\x01:L\x03A'
p88
tp89
Rp90
ag45
(g49
S'\x13y\xdfd=\xb0\x10A'
p91
tp92
Rp93
ag45
(g49
S'\xc1q:\x16\xf2\xe8\x0fA'
p94
tp95
Rp96
ag45
(g49
S'\xaelA\x01\x15G\x12A'
p97
tp98
Rp99
ag45
(g49
S'\xaa)\xb8[d\xf1\x13A'
p100
tp101
Rp102
ag45
(g49
S'\x13\x80\x1f|\x15\x0b\x14A'
p103
tp104
Rp105
ag45
(g49
S'\x05\xd8\x9f\xe88~\rA'
p106
tp107
Rp108
ag45
(g49
S'5\xc2\xdeE1\x8b\x10A'
p109
tp110
Rp111
asI5
(lp112
g45
(g49
S'YL\x8d"\xb3\x052@'
p113
tp114
Rp115
ag45
(g49
S'\x1b\xd1\xe6\xbd\xd2L\xeb@'
p116
tp117
Rp118
ag45
(g49
S'm\xd1\x97\xb0x\xe1\xe0@'
p119
tp120
Rp121
ag45
(g49
S'M \xc657\xbb\xe2@'
p122
tp123
Rp124
ag45
(g49
S'\xd2_8\xf7\x8d\x02\xe0@'
p125
tp126
Rp127
ag45
(g49
S'#]\xf2\xccE\x90\xdf@'
p128
tp129
Rp130
ag45
(g49
S'\x86\xb2\xcfg]t\xbd@'
p131
tp132
Rp133
ag45
(g49
S'I`\x02\xcc\xa6\xd1\xf3@'
p134
tp135
Rp136
ag45
(g49
S'\xfdO\xbcAt\x9c\xf0@'
p137
tp138
Rp139
ag45
(g49
S'm?]\xf2\x9eA\xc4@'
p140
tp141
Rp142
ag45
(g49
S'\xc8\xa9\xa8\xeb\xe9\x82\xd6@'
p143
tp144
Rp145
ag45
(g49
S'\x15\x1a\x82\xadu\x13\x03A'
p146
tp147
Rp148
ag45
(g49
S'\x98X\xd3\xb1\xf2\x00\xf7@'
p149
tp150
Rp151
ag45
(g49
S'1\xab8\x96\xd0\x8e\x00A'
p152
tp153
Rp154
ag45
(g49
S'\xd6J=*\rb\xf2@'
p155
tp156
Rp157
ag45
(g49
S'}\t(p\xef{\xe5@'
p158
tp159
Rp160
ag45
(g49
S'\x92qU\xbcU\xfa\xf7@'
p161
tp162
Rp163
ag45
(g49
S'\xcd,\x92i\xb0\xe7\xf2@'
p164
tp165
Rp166
ag45
(g49
S'\x81\xf8?D\xf8h\xd9@'
p167
tp168
Rp169
ag45
(g49
S'\xee\x8cD\x07+A\xf2@'
p170
tp171
Rp172
asI10
(lp173
g45
(g49
S'.,\xb7B~\x82M@'
p174
tp175
Rp176
ag45
(g49
S'M\x80\x18=X6O@'
p177
tp178
Rp179
ag45
(g49
S'\xc3M\xb9\xdf\xaa\x1aM@'
p180
tp181
Rp182
ag45
(g49
S"'w\xc3wc\xdc\xd6@"
p183
tp184
Rp185
ag45
(g49
S'\xa0\xa4\x92\xb3t\xe6_@'
p186
tp187
Rp188
ag45
(g49
S'\x12\xea\x1b\x83S\xf5\xc2@'
p189
tp190
Rp191
ag45
(g49
S'\x9aaX\xbf\xddm\xa7@'
p192
tp193
Rp194
ag45
(g49
S'D\x1a\x98\x9d\xfa~T@'
p195
tp196
Rp197
ag45
(g49
S'~>\xdf\x03\xfe@\xe0@'
p198
tp199
Rp200
ag45
(g49
S'[\xce\x83\x8b%:I@'
p201
tp202
Rp203
ag45
(g49
S'5\xa7\xc8\xd2\xf5\xd3\xa6@'
p204
tp205
Rp206
ag45
(g49
S'\xa6y\xd5\xea\x0e~P@'
p207
tp208
Rp209
ag45
(g49
S'\x91\xbc4u@!K@'
p210
tp211
Rp212
ag45
(g49
S'T`w\xc3\xc1G\xc1@'
p213
tp214
Rp215
ag45
(g49
S'an+\xaf]RK@'
p216
tp217
Rp218
ag45
(g49
S'|\x91.\x13\x8dNV@'
p219
tp220
Rp221
ag45
(g49
S'\x0cK\xbd\x9d\x1eK`@'
p222
tp223
Rp224
ag45
(g49
S'\xea\xdd\xf8F\xb3\xbe\xf1@'
p225
tp226
Rp227
ag45
(g49
S'\xa4\xbb\xa7\xff\x99\xa7O@'
p228
tp229
Rp230
ag45
(g49
S'\xc4\xd5\xb52LEL@'
p231
tp232
Rp233
asI75
(lp234
g45
(g49
S'\xc0}\x7f\xf6\xe1\xc7\x82@'
p235
tp236
Rp237
ag45
(g49
S'\xea]\xb2\xac/\x9f~@'
p238
tp239
Rp240
ag45
(g49
S'\xf4\xd8\x15\xb1-A\x93@'
p241
tp242
Rp243
ag45
(g49
S'\x9b\xba^E\xc8\xff\x90@'
p244
tp245
Rp246
ag45
(g49
S'\x15QO\xf1\x1b9\x81@'
p247
tp248
Rp249
ag45
(g49
S'Z\x99\xc0O\xa4\xae\x81@'
p250
tp251
Rp252
ag45
(g49
S'3u\xeb\x87\xb0\xf7\x8c@'
p253
tp254
Rp255
ag45
(g49
S'\x8e\\\xf8\x9c9?\x80@'
p256
tp257
Rp258
ag45
(g49
S'\xbb\xa5\xfe=\xb3\xc5{@'
p259
tp260
Rp261
ag45
(g49
S'k\xc9\xde\xb5\x07I\x94@'
p262
tp263
Rp264
ag45
(g49
S'\\\xe2\x1aQW\xac\x90@'
p265
tp266
Rp267
ag45
(g49
S';\xba\xd30*_\x80@'
p268
tp269
Rp270
ag45
(g49
S'S\xcee\xd6lL\x99@'
p271
tp272
Rp273
ag45
(g49
S'\xf79\x1e+"K\x81@'
p274
tp275
Rp276
ag45
(g49
S'\xd5\xd7\x81\x1a\x1b\x1f}@'
p277
tp278
Rp279
ag45
(g49
S'\xc4\x18=\x95\xe7\x90\x92@'
p280
tp281
Rp282
ag45
(g49
S'C#x\xb3\xa5V\x87@'
p283
tp284
Rp285
ag45
(g49
S'\x1e\xeeC\xa6!\x80\x83@'
p286
tp287
Rp288
ag45
(g49
S'\x93&\xcf\x90\x88\xfe\x82@'
p289
tp290
Rp291
ag45
(g49
S'\x9aK\x88\xb0{\xed\x89@'
p292
tp293
Rp294
asI50
(lp295
g45
(g49
S'S\x9a\xc1E\x00\x95t@'
p296
tp297
Rp298
ag45
(g49
S'q\xf0\xd0}\xd8\xa1\x8f@'
p299
tp300
Rp301
ag45
(g49
S'4\xf3\\y\x11\xc7~@'
p302
tp303
Rp304
ag45
(g49
S'0\xf6d\xe2dn\x83@'
p305
tp306
Rp307
ag45
(g49
S'\xfa\xa6\xf8\x97W\xfd\x86@'
p308
tp309
Rp310
ag45
(g49
S'\xf2\x84"\xbe\xd3\x9bt@'
p311
tp312
Rp313
ag45
(g49
S'\x14-N\xd2\x05\\\x83@'
p314
tp315
Rp316
ag45
(g49
S'E\x88n\x08\xef^\x80@'
p317
tp318
Rp319
ag45
(g49
S'\xe4\xa7\x13\xf4G+\x94@'
p320
tp321
Rp322
ag45
(g49
S'\xedJ\xa1)\xd2\xa9t@'
p323
tp324
Rp325
ag45
(g49
S'\xe2\xedu\xc2s\xcd\x88@'
p326
tp327
Rp328
ag45
(g49
S'\x90\xaa>\x02\xc3<~@'
p329
tp330
Rp331
ag45
(g49
S'\x1e\xad\xe5\xe0\xaa\x15\x82@'
p332
tp333
Rp334
ag45
(g49
S'\xb3h\xe3\xe8e/~@'
p335
tp336
Rp337
ag45
(g49
S'\xb0\x85_\xb6f\xd9\x7f@'
p338
tp339
Rp340
ag45
(g49
S'\xe5\x99A\xa2\xe4\x1f\x84@'
p341
tp342
Rp343
ag45
(g49
S'Kbm\xc6\x1d(\x81@'
p344
tp345
Rp346
ag45
(g49
S'\x93AD\xc5%q\x89@'
p347
tp348
Rp349
ag45
(g49
S'M\xe1\xaa\x97\xf3\xba\x82@'
p350
tp351
Rp352
ag45
(g49
S'\x80[\xb9\xe8\xfc&|@'
p353
tp354
Rp355
asI20
(lp356
g45
(g49
S'\xbaqi@\x0f ]@'
p357
tp358
Rp359
ag45
(g49
S'B0G\x84\xc0\xb2Y@'
p360
tp361
Rp362
ag45
(g49
S'w\t}q<Gk@'
p363
tp364
Rp365
ag45
(g49
S'%!\x16"\xa5.q@'
p366
tp367
Rp368
ag45
(g49
S'n\xb8>?\r\xa3Z@'
p369
tp370
Rp371
ag45
(g49
S'v\xa8gSf\xd4\x7f@'
p372
tp373
Rp374
ag45
(g49
S'\xd6\xfd\xb0L\xd0\xc6h@'
p375
tp376
Rp377
ag45
(g49
S'\xea%#&E\x1ap@'
p378
tp379
Rp380
ag45
(g49
S'"\xbar\x1bD,h@'
p381
tp382
Rp383
ag45
(g49
S'S\xdd\xc4\x8d\xc1\x0fp@'
p384
tp385
Rp386
ag45
(g49
S'\xd5Mp#y2i@'
p387
tp388
Rp389
ag45
(g49
S'\xab\x96t\x0e\x81lt@'
p390
tp391
Rp392
ag45
(g49
S'\xb8\x9b\xf0\xff\x05\xe6c@'
p393
tp394
Rp395
ag45
(g49
S'\x06\xb6V\xc6H\xb4`@'
p396
tp397
Rp398
ag45
(g49
S")\xc7'\x80\xde\xb9v@"
p399
tp400
Rp401
ag45
(g49
S'\x9f\xfd\xe8\xb3NFp@'
p402
tp403
Rp404
ag45
(g49
S'\xda\x83#&\x8d\x0ec@'
p405
tp406
Rp407
ag45
(g49
S'L\xb7\xa7\x80\xac\xc1d@'
p408
tp409
Rp410
ag45
(g49
S'%\xdf\x8b\xba\x9a\xa5w@'
p411
tp412
Rp413
ag45
(g49
S'F\xcd>\x8b\x1c\xc7_@'
p414
tp415
Rp416
assg15
(dp417
I2
(lp418
g45
(g49
S"\xf7\xa1M\xd5'-\xf1@"
p419
tp420
Rp421
ag45
(g49
S'\x97\x8c\x02\x03\x08-\xf4@'
p422
tp423
Rp424
ag45
(g49
S'\xfe\x95\xc3\xbaP\xa8\xee@'
p425
tp426
Rp427
ag45
(g49
S'\xbd\xff\x8ch\xcf\x92\xf6@'
p428
tp429
Rp430
ag45
(g49
S'\xf8b\x88\x0e\xd0\x9b\xf0@'
p431
tp432
Rp433
ag45
(g49
S'\xe2\xe07\xee]\xb1\xf3@'
p434
tp435
Rp436
ag45
(g49
S'\xab\xceZ\xb0X\x11\xf6@'
p437
tp438
Rp439
ag45
(g49
S'=\xb4\xf4-{\x86\xfe@'
p440
tp441
Rp442
ag45
(g49
S'\x9f{\xf9px\xa0\xeb@'
p443
tp444
Rp445
ag45
(g49
S'\xb1\x19\xa0\xa5\xcd\x82\xef@'
p446
tp447
Rp448
ag45
(g49
S'\xc3Q>\x07<\xfb\xf8@'
p449
tp450
Rp451
ag45
(g49
S'q>f\x1a\x0e:\xfd@'
p452
tp453
Rp454
ag45
(g49
S'e\x80Zo\x9d\xd2\xd7@'
p455
tp456
Rp457
ag45
(g49
S'+\xd3\xbe\x97*\x1b\xf1@'
p458
tp459
Rp460
ag45
(g49
S'\xc1\xc3\xe9\xed2\xff\xe0@'
p461
tp462
Rp463
ag45
(g49
S'[y\xea\xec\xfa\xfd\xe1@'
p464
tp465
Rp466
ag45
(g49
S"'\xe4\x89\xdea\xf4\xe3@"
p467
tp468
Rp469
ag45
(g49
S'\xd0\x91\xf4\xca;\xa4\xf5@'
p470
tp471
Rp472
ag45
(g49
S'E\xc7r\x826L\xf7@'
p473
tp474
Rp475
ag45
(g49
S'\x99::]\xe5\xaf\xec@'
p476
tp477
Rp478
asI5
(lp479
g45
(g49
S'f\xc3\x07\xff&&@@'
p480
tp481
Rp482
ag45
(g49
S'\xe6\x13]\xb5\xa6\x8f7@'
p483
tp484
Rp485
ag45
(g49
S'i\x19q\xa0&u?@'
p486
tp487
Rp488
ag45
(g49
S'\xa5e\x9d\x9b\xa4\x146@'
p489
tp490
Rp491
ag45
(g49
S'\x8e\xbdd\x89\x1293@'
p492
tp493
Rp494
ag45
(g49
S'\xab\xa3x\xf6.\x0f7@'
p495
tp496
Rp497
ag45
(g49
S'9t\xdeb\x07\xf39@'
p498
tp499
Rp500
ag45
(g49
S'2f\x0b\x95\xb1;.@'
p501
tp502
Rp503
ag45
(g49
S'>\xe6\x1a\xcf0\xbd5@'
p504
tp505
Rp506
ag45
(g49
S'\x8cY\xfd/\xddlG@'
p507
tp508
Rp509
ag45
(g49
S'\xb6~+\xd5g\x074@'
p510
tp511
Rp512
ag45
(g49
S'\xec\x1a\x84\xfa\xa0\xfe/@'
p513
tp514
Rp515
ag45
(g49
S'\xb8lF\xdf\xd6@=@'
p516
tp517
Rp518
ag45
(g49
S"?p[\xb9\x97'+@"
p519
tp520
Rp521
ag45
(g49
S'\x82\xf0\xfe_\x90o:@'
p522
tp523
Rp524
ag45
(g49
S'E\x84\x01\x90E\x8d1@'
p525
tp526
Rp527
ag45
(g49
S'\xdd|\x88\x9c\xd7\xb68@'
p528
tp529
Rp530
ag45
(g49
S'\x9d\x02\x12\x9c\x1c\x8f3@'
p531
tp532
Rp533
ag45
(g49
S'/\xb2\xce\t\xc8\n@@'
p534
tp535
Rp536
ag45
(g49
S'f\xcd\x16\xf1\xe456@'
p537
tp538
Rp539
asI10
(lp540
g45
(g49
S's\xf9-}\xe9\x05B@'
p541
tp542
Rp543
ag45
(g49
S'\xedmlG[\x00D@'
p544
tp545
Rp546
ag45
(g49
S'>\xae\xdaY\xdd\xd2C@'
p547
tp548
Rp549
ag45
(g49
S'\xc3\xf0\xcac\xfc\xfc<@'
p550
tp551
Rp552
ag45
(g49
S'\xf8\xa2\x93\xc9\x06\xd5A@'
p553
tp554
Rp555
ag45
(g49
S'\x9crMr\xd0\x95C@'
p556
tp557
Rp558
ag45
(g49
S'\xf1\x9cYSe\xdcD@'
p559
tp560
Rp561
ag45
(g49
S'\x8dq\xd5\xc7`NC@'
p562
tp563
Rp564
ag45
(g49
S'I\x94\xf9}$\x94F@'
p565
tp566
Rp567
ag45
(g49
S'\xeb\x19*\xfbQ\xa6@@'
p568
tp569
Rp570
ag45
(g49
S'\x8b1\x04\xb7/\x91A@'
p571
tp572
Rp573
ag45
(g49
S'\xf5\x84K\xc7\xb7vG@'
p574
tp575
Rp576
ag45
(g49
S'mzT\xab\xe9_B@'
p577
tp578
Rp579
ag45
(g49
S'\x1e1\xd5o\xa62B@'
p580
tp581
Rp582
ag45
(g49
S'\x9c\xa5\xa2};wF@'
p583
tp584
Rp585
ag45
(g49
S'rB\xa2\xd8\xa1\xe4<@'
p586
tp587
Rp588
ag45
(g49
S'\xaa\xed\xd8\x8a\xad\xadB@'
p589
tp590
Rp591
ag45
(g49
S'\xe15\r\x9fB\x85G@'
p592
tp593
Rp594
ag45
(g49
S'Npj\xe0\x11\xb46@'
p595
tp596
Rp597
ag45
(g49
S'\x8e \x82.G\x96H@'
p598
tp599
Rp600
asI75
(lp601
g45
(g49
S'\xcb\x9ck\xe6\xee*\x88@'
p602
tp603
Rp604
ag45
(g49
S'V\x0c\xeeGz\xb9|@'
p605
tp606
Rp607
ag45
(g49
S'\xee7\x80\xf5\x81\xc6{@'
p608
tp609
Rp610
ag45
(g49
S'>1\xb9\x89It\x80@'
p611
tp612
Rp613
ag45
(g49
S'\xe6\x88R\xa0dVz@'
p614
tp615
Rp616
ag45
(g49
S'\xd4Cj\xcb+`\x81@'
p617
tp618
Rp619
ag45
(g49
S'UqA\x18\xce\xc3~@'
p620
tp621
Rp622
ag45
(g49
S'\x01\xe3\xf5\xb542{@'
p623
tp624
Rp625
ag45
(g49
S'\xf9\\\x8eR#\x9c\x81@'
p626
tp627
Rp628
ag45
(g49
S'~f\x15}q\xd9}@'
p629
tp630
Rp631
ag45
(g49
S'\xb3\xc8Zu9!\x8e@'
p632
tp633
Rp634
ag45
(g49
S'\xacs\x8c\xc4p\x8f}@'
p635
tp636
Rp637
ag45
(g49
S'/>v_\xf7\xb4}@'
p638
tp639
Rp640
ag45
(g49
S'\xe4=\xf1\x1cM\xaa~@'
p641
tp642
Rp643
ag45
(g49
S'>\x96rB\xa5\xcf\x8a@'
p644
tp645
Rp646
ag45
(g49
S'lD\xc3\xab\xb0\x18x@'
p647
tp648
Rp649
ag45
(g49
S'\x0e\x8f"\xcd\x8c)}@'
p650
tp651
Rp652
ag45
(g49
S'\x11\xbf\x9d\xdb4\x96{@'
p653
tp654
Rp655
ag45
(g49
S'\x99%F?u\xa2\x7f@'
p656
tp657
Rp658
ag45
(g49
S'\xa38J\xf7a\xfey@'
p659
tp660
Rp661
asI50
(lp662
g45
(g49
S'\x83\xa7]D\x8f\x0ey@'
p663
tp664
Rp665
ag45
(g49
S'\x0f\xa9\x90\x1b\x03\xebu@'
p666
tp667
Rp668
ag45
(g49
S'a\xfd\x17U\xaeX{@'
p669
tp670
Rp671
ag45
(g49
S'P\xfc\xc9\xda\xda\x8b|@'
p672
tp673
Rp674
ag45
(g49
S'\xbc\xf2\xe6[Atz@'
p675
tp676
Rp677
ag45
(g49
S'\xfe\xe8)\xf0~u{@'
p678
tp679
Rp680
ag45
(g49
S'\xfd\xd5;X^Qv@'
p681
tp682
Rp683
ag45
(g49
S'LiW,W"{@'
p684
tp685
Rp686
ag45
(g49
S'\xc9\x92\xa53\xf4Sv@'
p687
tp688
Rp689
ag45
(g49
S'\x864\xfaM=\xabz@'
p690
tp691
Rp692
ag45
(g49
S'f\xb5\xb5>\\t\x80@'
p693
tp694
Rp695
ag45
(g49
S'P\xc1\xd8\xbd:*~@'
p696
tp697
Rp698
ag45
(g49
S'\n!\xe1\x195xs@'
p699
tp700
Rp701
ag45
(g49
S'\x83\xcc\xe1\x96\x0e\xdd}@'
p702
tp703
Rp704
ag45
(g49
S'>\xcaT\xa7\x14\x1a{@'
p705
tp706
Rp707
ag45
(g49
S'\x0fH\xbb^\xb9L{@'
p708
tp709
Rp710
ag45
(g49
S';\x85D\x1e\x8a\\{@'
p711
tp712
Rp713
ag45
(g49
S'\xdd\xd3\x90\xb8d\xe1~@'
p714
tp715
Rp716
ag45
(g49
S'\xbf\x1b&\x9e \xba}@'
p717
tp718
Rp719
ag45
(g49
S'\xe5|\xd26\x868v@'
p720
tp721
Rp722
asI20
(lp723
g45
(g49
S'Jo\x9d$kI\\@'
p724
tp725
Rp726
ag45
(g49
S'\x80u\xf4%\x10<_@'
p727
tp728
Rp729
ag45
(g49
S'J\xfb\xe0\xda\r\x81`@'
p730
tp731
Rp732
ag45
(g49
S'\xde8\xd6g\x9eO_@'
p733
tp734
Rp735
ag45
(g49
S'\x89\x87\x01?\x9f\x08e@'
p736
tp737
Rp738
ag45
(g49
S'\xd3%x\x00\x8a\x0b`@'
p739
tp740
Rp741
ag45
(g49
S'\xfb@\xd9q\x81\xe9c@'
p742
tp743
Rp744
ag45
(g49
S'|\xb5qQN\x84Z@'
p745
tp746
Rp747
ag45
(g49
S'Z\xe0\xb7\xffGP`@'
p748
tp749
Rp750
ag45
(g49
S'\xb4\xfd\xf3\x86|\xc9_@'
p751
tp752
Rp753
ag45
(g49
S'\x8c\xf6\x825\xcc\x0b_@'
p754
tp755
Rp756
ag45
(g49
S'E7\xdb\xce\xf8\xe8Y@'
p757
tp758
Rp759
ag45
(g49
S'\xad\x8c0\x81D\xa4a@'
p760
tp761
Rp762
ag45
(g49
S'\x00i_\x97\xf4\xc1`@'
p763
tp764
Rp765
ag45
(g49
S'\xe3U\xfa_F\x01b@'
p766
tp767
Rp768
ag45
(g49
S'\xd7N\x17\xb6#Qa@'
p769
tp770
Rp771
ag45
(g49
S'\xc4\x8f}\xd5\xd6\x07Z@'
p772
tp773
Rp774
ag45
(g49
S'\xa6X\xf3o\t\x96d@'
p775
tp776
Rp777
ag45
(g49
S'\xac\x0bR+\x06\xb3b@'
p778
tp779
Rp780
ag45
(g49
S'\xe4xNBp#g@'
p781
tp782
Rp783
assg14
(dp784
I2
(lp785
g45
(g49
S'\x9fK\xa4\x80A\x9a\x1eA'
p786
tp787
Rp788
ag45
(g49
S'\x11-\x88\x9e\x9d\xa8\x1eA'
p789
tp790
Rp791
ag45
(g49
S'\xab\npx\xe2C\x1fA'
p792
tp793
Rp794
ag45
(g49
S'_\xb3\xf4r_&\x1eA'
p795
tp796
Rp797
ag45
(g49
S'O}\xfcB:\t\x1fA'
p798
tp799
Rp800
ag45
(g49
S'o<h\xf7\xd6\xbb\x1eA'
p801
tp802
Rp803
ag45
(g49
S'\xf3\xd4\x82\xe6n\xaf\x1fA'
p804
tp805
Rp806
ag45
(g49
S'\x1cj#=m\xdd\x1eA'
p807
tp808
Rp809
ag45
(g49
S'K\x84\xb6\xa4V\xee\x1dA'
p810
tp811
Rp812
ag45
(g49
S'\x8arx\x85\xa1}\x1eA'
p813
tp814
Rp815
ag45
(g49
S"\xa3+'Y^x\x1eA"
p816
tp817
Rp818
ag45
(g49
S's\x12z\x90\xb2\x00\x1fA'
p819
tp820
Rp821
ag45
(g49
S'B\xb3\xd3\x12\xe68\x1fA'
p822
tp823
Rp824
ag45
(g49
S'pFQ"s\xf4\x1eA'
p825
tp826
Rp827
ag45
(g49
S'A\x9cN\x07\x885\x1fA'
p828
tp829
Rp830
ag45
(g49
S';\xde\xc3\x84A\x8c\x1fA'
p831
tp832
Rp833
ag45
(g49
S'Z*\x7f!`\xb6\x1fA'
p834
tp835
Rp836
ag45
(g49
S'\x1bp\x99>\x9c\xd7\x1eA'
p837
tp838
Rp839
ag45
(g49
S'\xfe\xa9\xdfR\x88>\x1eA'
p840
tp841
Rp842
ag45
(g49
S'7\xcb\x96\x98\x0b\x14\x1eA'
p843
tp844
Rp845
asI5
(lp846
g45
(g49
S'ir\x15r\x0c\xf6\x1eA'
p847
tp848
Rp849
ag45
(g49
S']x&-\x9b*\x1fA'
p850
tp851
Rp852
ag45
(g49
S"\x8a'\x93\x01\xd4-\x1fA"
p853
tp854
Rp855
ag45
(g49
S'\x13.x\xe3\x18\x91\x1fA'
p856
tp857
Rp858
ag45
(g49
S"\x08':p\x05\xd1\x1eA"
p859
tp860
Rp861
ag45
(g49
S'\x95\x9e\xdc\x18d\x9a\x1eA'
p862
tp863
Rp864
ag45
(g49
S'\x86\x9c\x11\x82\x1a\x91\x1eA'
p865
tp866
Rp867
ag45
(g49
S'\x13\r,}\xcb\x9d\x1eA'
p868
tp869
Rp870
ag45
(g49
S'T\xc3\xf8\xc1Fe\x1eA'
p871
tp872
Rp873
ag45
(g49
S'\xfd\x97\xf6i\xe7\xd0\x1eA'
p874
tp875
Rp876
ag45
(g49
S'\xb2\xc8h\xca\xea\x12\x1fA'
p877
tp878
Rp879
ag45
(g49
S'iC\x91-dt\x1eA'
p880
tp881
Rp882
ag45
(g49
S'Km?\xbb\xe2\xc4\x1fA'
p883
tp884
Rp885
ag45
(g49
S'\x87i\xf0\xf4(K\x1fA'
p886
tp887
Rp888
ag45
(g49
S'\r\xaf\xd3\x16\xd4\xa1\x1dA'
p889
tp890
Rp891
ag45
(g49
S'Tf\xba\t]\xf3\x1eA'
p892
tp893
Rp894
ag45
(g49
S'B\x9d\xb0\xd2\x1e5\x1fA'
p895
tp896
Rp897
ag45
(g49
S'\xb2\xa5w\x89\x8cV\x1fA'
p898
tp899
Rp900
ag45
(g49
S'\r\x85\x07S\xf3Y\x1fA'
p901
tp902
Rp903
ag45
(g49
S'O\x99^\xd6\xe6\x95\x1eA'
p904
tp905
Rp906
asI10
(lp907
g45
(g49
S'\x9d\x87b\xba\xba$\x1fA'
p908
tp909
Rp910
ag45
(g49
S'\x1dFH9K\xe3\x1eA'
p911
tp912
Rp913
ag45
(g49
S'\x8c\xd2\xcd\xd3\xbf\xfd\x1dA'
p914
tp915
Rp916
ag45
(g49
S'X\x80\xae\xde;$\x1fA'
p917
tp918
Rp919
ag45
(g49
S'\xe1`\x04\xb0l\x80\x1eA'
p920
tp921
Rp922
ag45
(g49
S'\tq\x9c^\xfcX\x1fA'
p923
tp924
Rp925
ag45
(g49
S'\xd4\xf3KN\xe8Y\x1eA'
p926
tp927
Rp928
ag45
(g49
S'O\xc2LWd3\x1eA'
p929
tp930
Rp931
ag45
(g49
S'q\xe8\x01\xc7\xcd\xce\x1eA'
p932
tp933
Rp934
ag45
(g49
S'\x1b\xbe\x1a\xef\x12\x1e\x1fA'
p935
tp936
Rp937
ag45
(g49
S'B\x01\x86\x9d\x84\x9b\x1eA'
p938
tp939
Rp940
ag45
(g49
S'\x0bS\xb3\x1a\xa0\xc5\x1dA'
p941
tp942
Rp943
ag45
(g49
S'\xc6\x9fN\x18\x18\xfd\x1eA'
p944
tp945
Rp946
ag45
(g49
S'h\x94*%:.\x1fA'
p947
tp948
Rp949
ag45
(g49
S'\x87\x0cV\xc45L\x1eA'
p950
tp951
Rp952
ag45
(g49
S'o\xe8\xc7\x7f\\\x19\x1fA'
p953
tp954
Rp955
ag45
(g49
S'\xe6+.m{\xb6\x1eA'
p956
tp957
Rp958
ag45
(g49
S'\xc7\xe2\xffJ\xb1\x93\x1eA'
p959
tp960
Rp961
ag45
(g49
S'\xef\xfb\x10\xbe\xb4\t\x1dA'
p962
tp963
Rp964
ag45
(g49
S'\xe1\xfb\x12\xfea\x08\x1fA'
p965
tp966
Rp967
asI75
(lp968
g45
(g49
S'`\x04\x03\xa7\x92\xd5\x1fA'
p969
tp970
Rp971
ag45
(g49
S'?[\xd4\xe8\xc0\xa2\x1eA'
p972
tp973
Rp974
ag45
(g49
S'\x8b|Z\x0e\xd5<\x1fA'
p975
tp976
Rp977
ag45
(g49
S'\xa2\x90\xe8\xd3\x8e\xe9\x1eA'
p978
tp979
Rp980
ag45
(g49
S'\xec\xfc\x1a\xde\xc81\x1fA'
p981
tp982
Rp983
ag45
(g49
S"\xdc\x07\x8a'd\xea\x1dA"
p984
tp985
Rp986
ag45
(g49
S'\x88\x11Z\xf6\x96N\x1fA'
p987
tp988
Rp989
ag45
(g49
S')\xa1\r\x80\xa6\x0f\x1fA'
p990
tp991
Rp992
ag45
(g49
S'\xc1{\xe1\x1b\x9dW\x1eA'
p993
tp994
Rp995
ag45
(g49
S'gK\x12Qh\xeb\x1eA'
p996
tp997
Rp998
ag45
(g49
S'e\xdc\xc4\t\xf9\xc6\x1fA'
p999
tp1000
Rp1001
ag45
(g49
S'\xf5\xfc\xe3\xdf\x0f\xb1\x1eA'
p1002
tp1003
Rp1004
ag45
(g49
S'0\x92n\x94\x0f\n\x1fA'
p1005
tp1006
Rp1007
ag45
(g49
S'\x00X6uH\x04\x1fA'
p1008
tp1009
Rp1010
ag45
(g49
S'\xe9\xc5k\x9ch\x8d\x1fA'
p1011
tp1012
Rp1013
ag45
(g49
S'\xaak\xfd"\xeek\x1eA'
p1014
tp1015
Rp1016
ag45
(g49
S'\xd8\xd6\x96\xa0\xc5\x02\x1fA'
p1017
tp1018
Rp1019
ag45
(g49
S'\x96)\xc6\xcd\x83\x1e\x1fA'
p1020
tp1021
Rp1022
ag45
(g49
S'^\x9fTl\xc0\xec\x1eA'
p1023
tp1024
Rp1025
ag45
(g49
S'\x8e\x85C\xa5e\x97\x1eA'
p1026
tp1027
Rp1028
asI50
(lp1029
g45
(g49
S'i\xd1B\xdc?\xa7\x1eA'
p1030
tp1031
Rp1032
ag45
(g49
S'\xc1\x95q\x82\xca\x96\x1eA'
p1033
tp1034
Rp1035
ag45
(g49
S'\x84\xe9\xadC\x001\x1fA'
p1036
tp1037
Rp1038
ag45
(g49
S'\xac7\xe00I!\x1fA'
p1039
tp1040
Rp1041
ag45
(g49
S'4t\xfb\xd6\xe0\xef\x1eA'
p1042
tp1043
Rp1044
ag45
(g49
S'\xf3\xe7_8P=\x1fA'
p1045
tp1046
Rp1047
ag45
(g49
S'\xe4\xa2\x8a\xd7\xc0\x10\x1eA'
p1048
tp1049
Rp1050
ag45
(g49
S'\xe4.\xe2v\x9c\x8b\x1eA'
p1051
tp1052
Rp1053
ag45
(g49
S',*S\xb8\xd7y\x1eA'
p1054
tp1055
Rp1056
ag45
(g49
S'\xd0\xfa\x94\xc1\xe7m\x1eA'
p1057
tp1058
Rp1059
ag45
(g49
S'|\xbf\xb4\xf03\xe6\x1eA'
p1060
tp1061
Rp1062
ag45
(g49
S'C\x08\xa3&\xbf\xb6\x1eA'
p1063
tp1064
Rp1065
ag45
(g49
S'\x99wo7\xca\x88\x1fA'
p1066
tp1067
Rp1068
ag45
(g49
S'?W\xaf\xe7\xd7H\x1eA'
p1069
tp1070
Rp1071
ag45
(g49
S'(\x1d\x1c\xc3\xeb\x14\x1fA'
p1072
tp1073
Rp1074
ag45
(g49
S'\x88\x19\x050\x97$\x1fA'
p1075
tp1076
Rp1077
ag45
(g49
S'\xad\xb4\xeb\xf3\x03\x11\x1fA'
p1078
tp1079
Rp1080
ag45
(g49
S'\nb\x1b\xc0\xe9\xbf\x1fA'
p1081
tp1082
Rp1083
ag45
(g49
S'\x86\xa2!\xf4\x13\xba\x1eA'
p1084
tp1085
Rp1086
ag45
(g49
S'\xd2a|f\xbd\x1c\x1fA'
p1087
tp1088
Rp1089
asI20
(lp1090
g45
(g49
S'D1\x1e\xe0=\xeb\x1eA'
p1091
tp1092
Rp1093
ag45
(g49
S'\x11\xfc\\\x8a\xbd\xc8\x1fA'
p1094
tp1095
Rp1096
ag45
(g49
S')\x19\xbc\xd6\x9c\xce\x1dA'
p1097
tp1098
Rp1099
ag45
(g49
S'\xd1\x9d\xed5\xec\x1c\x1eA'
p1100
tp1101
Rp1102
ag45
(g49
S'\x81s\x86\x85\xe7\xc8\x1fA'
p1103
tp1104
Rp1105
ag45
(g49
S'\xc6J \xcf\x01u\x1eA'
p1106
tp1107
Rp1108
ag45
(g49
S'B\x15\x95\xd2b\x80\x1eA'
p1109
tp1110
Rp1111
ag45
(g49
S'\xb3\xe7X\xa5m\xbd\x1eA'
p1112
tp1113
Rp1114
ag45
(g49
S'\x88\xd8[\xa0\x0e?\x1fA'
p1115
tp1116
Rp1117
ag45
(g49
S'\x1d\xbf\xb0V\xc3\xf3\x1eA'
p1118
tp1119
Rp1120
ag45
(g49
S'0P2\xa3\x1cu\x1eA'
p1121
tp1122
Rp1123
ag45
(g49
S'\x97\x1e\xa2!\xec|\x1eA'
p1124
tp1125
Rp1126
ag45
(g49
S'>Y\xe7\xd0\xf8\xde\x1eA'
p1127
tp1128
Rp1129
ag45
(g49
S'\xa3{\x06N\xbdy\x1eA'
p1130
tp1131
Rp1132
ag45
(g49
S'8\x89\xa90p{\x1eA'
p1133
tp1134
Rp1135
ag45
(g49
S'\xe1\xf4g$\x1f\xb9\x1eA'
p1136
tp1137
Rp1138
ag45
(g49
S'\xefK\xb1\xadK\x97\x1eA'
p1139
tp1140
Rp1141
ag45
(g49
S'x=Xj\x96"\x1fA'
p1142
tp1143
Rp1144
ag45
(g49
S'\n\xca\xb42lg\x1fA'
p1145
tp1146
Rp1147
ag45
(g49
S'\xb7Z\xde\x03\x07@\x1fA'
p1148
tp1149
Rp1150
asssI2
(dp1151
g13
(dp1152
I2
(lp1153
F2696.6578712768714
aF2968.455949998924
aF3219.9128944073805
aF3725.9603876062934
aF5565.5009906597725
aF4759.617522523538
aF4605.892467180546
aF2820.6066436785136
aF6444.5490557318535
aF6417.691603447694
aF4426.7041729695575
aF5350.443694574944
aF3259.231484354569
aF5854.244246844065
aF5464.683806059227
aF4225.8669154102545
aF3144.031280823393
aF4071.3003600262787
aF5007.022565093664
aF5584.25999148176
asI5
(lp1154
F19519.28463336789
aF38656.26977589126
aF4432.626863721837
aF12144.407833857993
aF33671.38191684936
aF27868.2713008086
aF36284.757414423875
aF32413.179709805867
aF23929.48503963605
aF37128.333517402934
aF31610.5795057563
aF26310.04365829945
aF27394.069271644763
aF26328.175271570803
aF26903.450647532438
aF38707.97272966083
aF24307.661797247467
aF23487.36388905727
aF9670.234439858998
aF23728.27811737047
asI10
(lp1155
F173833.4024543012
aF121579.95552592889
aF203424.04522957333
aF139022.8818623163
aF170934.27741119885
aF120611.15573902348
aF183825.95785717136
aF238788.0118473612
aF167007.97998935226
aF165479.41950296747
aF91421.61920528971
aF126760.87115198192
aF197174.72015645646
aF114211.97113296394
aF133279.97091729424
aF103268.90934292394
aF162130.024348343
aF267408.60673581995
aF180494.26584054873
aF198419.85025963542
asI75
(lp1156
F27078094.539952878
aF26554566.323877875
aF27298006.296961278
aF25301977.944996774
aF29511189.01655949
aF26228482.15776239
aF26336055.950158067
aF28976707.05252359
aF23705685.924200248
aF26684964.532622047
aF31630513.954966724
aF33307851.567789506
aF29310188.841743447
aF28952376.723261293
aF31549625.23695432
aF29950448.753516037
aF31988129.358621605
aF27177443.87470514
aF24811465.95346744
aF29665864.8120026
asI50
(lp1157
F9809101.101807391
aF10329253.04414248
aF9460737.688914547
aF8322879.216067979
aF8149729.054685067
aF8971350.17068672
aF7347564.912785643
aF8046030.413167713
aF9167994.505625341
aF7764949.933187276
aF8881395.16372614
aF9223310.39917713
aF9525384.100267505
aF9431765.61477835
aF8308666.080851975
aF8703495.050165618
aF8721768.594176726
aF9102684.421721926
aF8247981.99615134
aF9565094.892023176
asI20
(lp1158
F961836.1844714261
aF1326106.4515161694
aF1107744.358779616
aF1044868.6000786403
aF944717.4223710047
aF1193991.196072075
aF964611.870091792
aF1582993.1758579107
aF1165822.9974496525
aF1052631.396262839
aF1210889.6081192319
aF1573534.3790616693
aF1005394.7736395574
aF959139.1034670139
aF996221.5042054208
aF1036942.0583153808
aF1036364.1948213472
aF1200174.7768066705
aF1075912.6466527947
aF1142687.1782988831
assg15
(dp1159
I2
(lp1160
F1139.4993750715994
aF1534.2343625782703
aF1369.3339161686708
aF1235.52538954869
aF1217.5132032949518
aF938.9994398023161
aF1340.706218836189
aF1530.3839626065326
aF1358.7572674453456
aF1395.705405494525
aF1381.361487008813
aF1366.229203575431
aF1528.277035017624
aF1199.1739241564464
aF1417.4683650146221
aF1673.470401588441
aF1227.2730882158094
aF1492.3325910153653
aF1173.1269742732075
aF887.6524989796033
asI5
(lp1161
F6116.67371292921
aF4792.0608418334805
aF3907.0544221601913
aF1435.678435436936
aF4643.8812355026885
aF3142.1581392700195
aF6511.1872247596175
aF5216.400131958651
aF4143.735135503655
aF5335.25172894161
aF3758.8852674034874
aF3805.7264487111693
aF2931.464911500036
aF4270.671902119697
aF1579.0577344913236
aF3530.3829748786343
aF3686.2661583448844
aF5843.970570605945
aF3532.253388268864
aF6296.321240858831
asI10
(lp1162
F72692.74227613787
aF67268.11549057406
aF58291.38245814331
aF75921.98184438022
aF64174.53292723724
aF60468.866370474105
aF71256.92171220384
aF43550.08533749632
aF58331.61945548273
aF42732.12704100032
aF62214.76607910004
aF47265.87532882539
aF73182.28698989128
aF63438.58735092386
aF18998.788553304694
aF20495.440584774595
aF39425.77784633641
aF50643.35439912597
aF67326.16800047098
aF41606.76085251467
asI75
(lp1163
F22065974.167834174
aF21475366.35718141
aF22738157.62920279
aF21738626.16603268
aF21522395.800538417
aF20436378.314751375
aF22572726.536742415
aF22764905.57639364
aF22280741.155488897
aF20681027.84451778
aF21568985.327602442
aF21986116.585668687
aF24714920.780062404
aF22018341.663968254
aF21609585.0448922
aF22538834.23508831
aF20721746.8478779
aF20502261.020571526
aF23658458.717798844
aF21754266.564905174
asI50
(lp1164
F6320917.151512055
aF6436375.968353834
aF6167200.142740061
aF6440380.010889798
aF6425977.049368329
aF6523543.171353101
aF5956842.27694836
aF5557818.7666462865
aF6434159.264208994
aF5891294.7385981055
aF6337152.347441144
aF6673681.395476889
aF6143991.504040593
aF5916000.926673501
aF6653187.399259958
aF6291239.606218253
aF5772140.292333505
aF6239740.6291361
aF6389304.876800071
aF6403055.564311446
asI20
(lp1165
F564443.1299214114
aF633447.8500795827
aF584872.1922786564
aF559361.9796720509
aF619018.269551751
aF534229.8314130673
aF555677.3408151438
aF446108.4215921475
aF553013.8695310169
aF580699.3152207256
aF668149.1192224079
aF532756.2779097424
aF548079.1859730969
aF620990.0419851925
aF685489.3191904646
aF484644.8206502284
aF669730.3813872109
aF555861.8805877449
aF366868.3147150254
aF590562.6638021498
assg14
(dp1166
I2
(lp1167
F8653.044002671339
aF8817.180734670586
aF8521.182919715766
aF8527.262054324143
aF8836.922106279482
aF8902.847860932656
aF8760.041251885123
aF8944.393598864172
aF8629.587679986786
aF8478.987167715224
aF8669.559084985027
aF8841.357589843099
aF8414.302343723137
aF8889.327137776927
aF8728.993970007292
aF8808.465301106804
aF8726.534251518704
aF8998.353251021295
aF8608.056858249376
aF8667.248514627778
asI5
(lp1168
F76784.29059880275
aF77456.2497903565
aF75665.72017279848
aF76953.34076621108
aF76901.85301359833
aF77507.34689675077
aF77074.69353608678
aF77495.31085706888
aF76740.1651524211
aF77473.26162189341
aF77200.67643591645
aF77393.07567194579
aF76930.80977226185
aF74341.06735871971
aF76268.86585219105
aF74675.46230386816
aF76971.7914387272
aF77680.70384639715
aF75866.31954361883
aF78064.96394655286
asI10
(lp1169
F347462.6405597042
aF347732.0670503675
aF353333.5873243279
aF350783.5411758548
aF350024.3693117179
aF342924.6232305096
aF348773.78689666436
aF347822.33391200285
aF346843.61460501706
aF345073.3908971089
aF351362.9026899191
aF352014.32338264317
aF350843.8033143678
aF350345.0312567106
aF350250.71438254643
aF351298.66234499007
aF347961.6114088464
aF353664.524962119
aF352327.5673436555
aF347464.4955174252
asI75
(lp1170
F45709825.78170722
aF45580246.58642196
aF45559560.90925732
aF45478740.27610615
aF45395697.113964275
aF45539931.214019105
aF45491983.61534619
aF45613356.83746345
aF45518344.8748191
aF45625932.09937271
aF45528040.44016546
aF45391649.19196707
aF45521046.39549688
aF45623350.53290927
aF45616121.151196145
aF45621599.80834824
aF45497973.101761535
aF45339448.07740841
aF45568408.169835895
aF45612210.79150405
asI50
(lp1171
F14446150.074878132
aF14513273.44875818
aF14475681.984658884
aF14446620.81591236
aF14529632.284004666
aF14456299.45385258
aF14523228.197781378
aF14531347.38984133
aF14549609.568425773
aF14502749.331263442
aF14481703.048608385
aF14473329.450632272
aF14535879.9481388
aF14440205.126879226
aF14484582.955412762
aF14553679.892408201
aF14544441.474799316
aF14490094.06010754
aF14478009.83151754
aF14522892.17175747
asI20
(lp1172
F2950497.5710723377
aF2949920.0999219003
aF2955429.3519588574
aF2929144.142425145
aF2960787.6130714864
aF2965879.820493466
aF2943894.490129305
aF2944193.313441525
aF2951687.5554172527
aF2948295.158703669
aF2956200.5118239266
aF2949065.9797815336
aF2953845.642117752
aF2939010.3723222734
aF2936956.245235514
aF2940651.30329587
aF2959268.5061086705
aF2956116.4183408082
aF2923403.2805101676
aF2959447.1030771467
asssI6
(dp1173
g13
(dp1174
I2
(lp1175
g45
(g49
S'\xf4\xca\x15\x9cR0\xbf?'
p1176
tp1177
Rp1178
ag45
(g49
S'\xfdu<\xc5Mf\xda?'
p1179
tp1180
Rp1181
ag45
(g49
S'=\x1d\xef:\xfd\xbb\xe1?'
p1182
tp1183
Rp1184
ag45
(g49
S'\xd2\xf8\xc1&u\x9f\xc0?'
p1185
tp1186
Rp1187
ag45
(g49
S'6:\xcf|\xf1\xd7\xd2?'
p1188
tp1189
Rp1190
ag45
(g49
S'\xd3@\x89\x03\x9e\x1f\xe4?'
p1191
tp1192
Rp1193
ag45
(g49
S'\xad\x00J\\]]\xe1?'
p1194
tp1195
Rp1196
ag45
(g49
S'Y\xe2\x03\xa8Dn\xd5?'
p1197
tp1198
Rp1199
ag45
(g49
S'qLO\xcfg\x1a\xe2?'
p1200
tp1201
Rp1202
ag45
(g49
S'n\xc2\x94\xc4\xe9\x9d\xdb?'
p1203
tp1204
Rp1205
ag45
(g49
S'A\x96\\\x11y\xa1\xe1?'
p1206
tp1207
Rp1208
ag45
(g49
S'\xf6r\xf6\xc2\x03\x8d\xeb?'
p1209
tp1210
Rp1211
ag45
(g49
S'9\x01{|~\x84\xe1?'
p1212
tp1213
Rp1214
ag45
(g49
S'\xbe@Z\t\xba\xde\xce?'
p1215
tp1216
Rp1217
ag45
(g49
S'\xc5\x94\xf0d\xb3\xa8\xc0?'
p1218
tp1219
Rp1220
ag45
(g49
S"\xd7\xd1'\x13\xf0\x15\x8a?"
p1221
tp1222
Rp1223
ag45
(g49
S'\xc9\xb1\xbf\x06yZ\xe4?'
p1224
tp1225
Rp1226
ag45
(g49
S'Q\x06\xded\x11\xfc\xe4?'
p1227
tp1228
Rp1229
ag45
(g49
S'z/\xc7\xa3\x82\xe2\xd9?'
p1230
tp1231
Rp1232
ag45
(g49
S'Z\xbflf\xdf\x9f\xde?'
p1233
tp1234
Rp1235
asI5
(lp1236
g45
(g49
S'\xa9\x076P\xa0k\x0f@'
p1237
tp1238
Rp1239
ag45
(g49
S'\xdb\xd6\x9b\xd2\xd4\x85\x0f@'
p1240
tp1241
Rp1242
ag45
(g49
S'\xf6\xa28{T\x85\x0f@'
p1243
tp1244
Rp1245
ag45
(g49
S'f\xab\xcd[\xf8\x9b\x0f@'
p1246
tp1247
Rp1248
ag45
(g49
S't\xac\x1f/\x94\xa5\x0f@'
p1249
tp1250
Rp1251
ag45
(g49
S'\xb6\xa32K\xec\xb7\x0f@'
p1252
tp1253
Rp1254
ag45
(g49
S'\xbf\x91Q\xcf\x8b\xa1\x0f@'
p1255
tp1256
Rp1257
ag45
(g49
S' S\xde|9\x7f\x0f@'
p1258
tp1259
Rp1260
ag45
(g49
S'Z\xaa\xb3/\xe3\xb2\x0f@'
p1261
tp1262
Rp1263
ag45
(g49
S"s\xfb7V\x90'\x0f@"
p1264
tp1265
Rp1266
ag45
(g49
S'S\x82@\x9c\x1b\xb1\x0f@'
p1267
tp1268
Rp1269
ag45
(g49
S'\xf4\x7f\x13Y\xd4z\x0f@'
p1270
tp1271
Rp1272
ag45
(g49
S'\xd4\x85:\x81\x0e\xbf\x0f@'
p1273
tp1274
Rp1275
ag45
(g49
S'\x1b\xd6\xca\xb2\xfal\x0f@'
p1276
tp1277
Rp1278
ag45
(g49
S'\xe2E\x92\x00=\x97\x0f@'
p1279
tp1280
Rp1281
ag45
(g49
S'^\xeb\xfb\xd3\x01\xcf\x0f@'
p1282
tp1283
Rp1284
ag45
(g49
S'CcPmw\x89\x0f@'
p1285
tp1286
Rp1287
ag45
(g49
S'*\xce\xe7]HY\x0f@'
p1288
tp1289
Rp1290
ag45
(g49
S'L\x82\x1f\x12\xd2\xdc\x0f@'
p1291
tp1292
Rp1293
ag45
(g49
S'\xf4\x80)\xb3\xe4\xa6\x0f@'
p1294
tp1295
Rp1296
asI10
(lp1297
g45
(g49
S'J:\xc2\x8da\xe6!@'
p1298
tp1299
Rp1300
ag45
(g49
S'\xb9\xc2\x8b\x90\xe7\xf4!@'
p1301
tp1302
Rp1303
ag45
(g49
S'GBK\r-\xe1!@'
p1304
tp1305
Rp1306
ag45
(g49
S'K\xf3"<\xde\xf3!@'
p1307
tp1308
Rp1309
ag45
(g49
S'\x1aw\xc1\x13\xb6\xf6!@'
p1310
tp1311
Rp1312
ag45
(g49
S'\x19\x8b=\xc6\xb5\xe5!@'
p1313
tp1314
Rp1315
ag45
(g49
S'\x1c\xa8L>B\xf1!@'
p1316
tp1317
Rp1318
ag45
(g49
S'D\x06\n\xccr\xf2!@'
p1319
tp1320
Rp1321
ag45
(g49
S'$\x01\xfd\xe2\xe6\xe8!@'
p1322
tp1323
Rp1324
ag45
(g49
S'\x91\x91yA\x99\xc6!@'
p1325
tp1326
Rp1327
ag45
(g49
S'\xbb\xca\xe86\xd6\xf2!@'
p1328
tp1329
Rp1330
ag45
(g49
S'\x98"q\x0b\xdf\xeb!@'
p1331
tp1332
Rp1333
ag45
(g49
S'*E\xbd\x97\xdc\xe1!@'
p1334
tp1335
Rp1336
ag45
(g49
S'\xc2\xd8!1\x0c\xf2!@'
p1337
tp1338
Rp1339
ag45
(g49
S'\x9f)\xf4[\xeb\xdf!@'
p1340
tp1341
Rp1342
ag45
(g49
S'\x8a\xf8\xa6)\xe5\xec!@'
p1343
tp1344
Rp1345
ag45
(g49
S'I\xd5$\xb9U\xeb!@'
p1346
tp1347
Rp1348
ag45
(g49
S'\x1a\xcc\xb4\xaf\x13\xec!@'
p1349
tp1350
Rp1351
ag45
(g49
S'P\xc4[}5\xe8!@'
p1352
tp1353
Rp1354
ag45
(g49
S'\xce\xda,\xaf\x94\xf6!@'
p1355
tp1356
Rp1357
asI75
(lp1358
g45
(g49
S'\xfe\x1cK@\xbe~R@'
p1359
tp1360
Rp1361
ag45
(g49
S'N\x8a\xf65\x9byR@'
p1362
tp1363
Rp1364
ag45
(g49
S'I\xe1\xb9\xb8\xb0|R@'
p1365
tp1366
Rp1367
ag45
(g49
S'\xb4@\xb7\xba\xd8~R@'
p1368
tp1369
Rp1370
ag45
(g49
S'\x17\xbcd\xf43}R@'
p1371
tp1372
Rp1373
ag45
(g49
S'LY\x03tw}R@'
p1374
tp1375
Rp1376
ag45
(g49
S'\xcc\x11\xa0Q\xce}R@'
p1377
tp1378
Rp1379
ag45
(g49
S'\xda@\x1bi\x82}R@'
p1380
tp1381
Rp1382
ag45
(g49
S'9\xdb\xd0\x937\x7fR@'
p1383
tp1384
Rp1385
ag45
(g49
S'\x1c}\xe1\xc2\x15}R@'
p1386
tp1387
Rp1388
ag45
(g49
S'(o\x96\xad\x84}R@'
p1389
tp1390
Rp1391
ag45
(g49
S' \x8b=\x82\x9e}R@'
p1392
tp1393
Rp1394
ag45
(g49
S'\xf9\xd86\xb5\xd5}R@'
p1395
tp1396
Rp1397
ag45
(g49
S'\x9aQ\xffB[}R@'
p1398
tp1399
Rp1400
ag45
(g49
S'_\xf7\x9688\x7fR@'
p1401
tp1402
Rp1403
ag45
(g49
S'bI\xb2>`|R@'
p1404
tp1405
Rp1406
ag45
(g49
S'[\x16\xfe\xf4\xfb|R@'
p1407
tp1408
Rp1409
ag45
(g49
S'\x16b\x00<\xd8zR@'
p1410
tp1411
Rp1412
ag45
(g49
S'\xab\xed\xd2\xac(}R@'
p1413
tp1414
Rp1415
ag45
(g49
S'\xe2\xc3\x04UW}R@'
p1416
tp1417
Rp1418
asI50
(lp1419
g45
(g49
S'\xea\xa8\xea\xbb\xf6|H@'
p1420
tp1421
Rp1422
ag45
(g49
S'\x9d\xb8\xc7w\xdf~H@'
p1423
tp1424
Rp1425
ag45
(g49
S'\xdb%B\xe1\xb7{H@'
p1426
tp1427
Rp1428
ag45
(g49
S'\xe9\xeb@\x86*|H@'
p1429
tp1430
Rp1431
ag45
(g49
S'\xd8\xa4\x865"yH@'
p1432
tp1433
Rp1434
ag45
(g49
S'\\;\xae[\x81{H@'
p1435
tp1436
Rp1437
ag45
(g49
S'+}\xabA{{H@'
p1438
tp1439
Rp1440
ag45
(g49
S',\xe6(<\x14|H@'
p1441
tp1442
Rp1443
ag45
(g49
S'\nj\xf2\x981vH@'
p1444
tp1445
Rp1446
ag45
(g49
S'^q\xb8P\x18zH@'
p1447
tp1448
Rp1449
ag45
(g49
S'\xf89\xd4J\x18xH@'
p1450
tp1451
Rp1452
ag45
(g49
S'\xe8\xd5\xfa\x15\x87yH@'
p1453
tp1454
Rp1455
ag45
(g49
S'\xb20\xeewCyH@'
p1456
tp1457
Rp1458
ag45
(g49
S'C\xb7\xb4LkyH@'
p1459
tp1460
Rp1461
ag45
(g49
S'\xc0\x0cy\xae\xa1zH@'
p1462
tp1463
Rp1464
ag45
(g49
S'\xea\x80\x1f\x9b\xd1{H@'
p1465
tp1466
Rp1467
ag45
(g49
S'\x11T\xc3tJzH@'
p1468
tp1469
Rp1470
ag45
(g49
S'\x95\xcb\xcc\x1e\xe7vH@'
p1471
tp1472
Rp1473
ag45
(g49
S'm\xfa/\xd2\xebzH@'
p1474
tp1475
Rp1476
ag45
(g49
S'x\x8e;Y%|H@'
p1477
tp1478
Rp1479
asI20
(lp1480
g45
(g49
S'\x85\t\xc1.\x87\xf82@'
p1481
tp1482
Rp1483
ag45
(g49
S'\xbe%]I\xab\xf72@'
p1484
tp1485
Rp1486
ag45
(g49
S'90X\x89\xa0\xf92@'
p1487
tp1488
Rp1489
ag45
(g49
S'\xe2\x9f\xeb(o\xf62@'
p1490
tp1491
Rp1492
ag45
(g49
S'\x92\xe7\xdaE\x19\xf52@'
p1493
tp1494
Rp1495
ag45
(g49
S'\xe4\xc3\xa1\x06\xc4\xf82@'
p1496
tp1497
Rp1498
ag45
(g49
S']\xed\xbd\xa7\x8e\xfd2@'
p1499
tp1500
Rp1501
ag45
(g49
S'\xee_\x80"\x81\xf92@'
p1502
tp1503
Rp1504
ag45
(g49
S'\xfa\x9cO\xf0\x8e\xf92@'
p1505
tp1506
Rp1507
ag45
(g49
S'G\x95*I\t\xf52@'
p1508
tp1509
Rp1510
ag45
(g49
S'\x1cp[\xe9\xef\xef2@'
p1511
tp1512
Rp1513
ag45
(g49
S'\xfe\x19\xd9\x88\xc1\xf62@'
p1514
tp1515
Rp1516
ag45
(g49
S'\xac3\x88\xb8\xc9\xec2@'
p1517
tp1518
Rp1519
ag45
(g49
S'\xbe\xe0@;V\xfa2@'
p1520
tp1521
Rp1522
ag45
(g49
S'\xdb\x8d\x9c\x96\xca\xfa2@'
p1523
tp1524
Rp1525
ag45
(g49
S'\x15\r\x12\xdf\x12\xf42@'
p1526
tp1527
Rp1528
ag45
(g49
S'\xaa\xc4\x8e\xe4m\xf22@'
p1529
tp1530
Rp1531
ag45
(g49
S'e\xae\xfe0\x84\xfa2@'
p1532
tp1533
Rp1534
ag45
(g49
S'j*\xf2\x13\xb1\xf32@'
p1535
tp1536
Rp1537
ag45
(g49
S'\xd2~)H[\xf62@'
p1538
tp1539
Rp1540
assg15
(dp1541
I2
(lp1542
g45
(g49
S'\xf9\xc2*/\x83\\\xb7?'
p1543
tp1544
Rp1545
ag45
(g49
S"\x86mG['(\xa5?"
p1546
tp1547
Rp1548
ag45
(g49
S'\xa2\xfd+\xf7\x97\xce\xb4?'
p1549
tp1550
Rp1551
ag45
(g49
S'\xac+Xc&\x11\xa4?'
p1552
tp1553
Rp1554
ag45
(g49
S'\x1cE\xadm\xff\xb5\x84?'
p1555
tp1556
Rp1557
ag45
(g49
S'\xa9m\x8cVrr\xb6?'
p1558
tp1559
Rp1560
ag45
(g49
S'\xb1k\x0f\xf0\xd0\xd4\xb4?'
p1561
tp1562
Rp1563
ag45
(g49
S'5\x87\x14`<\x8b\xb1?'
p1564
tp1565
Rp1566
ag45
(g49
S'\xe6k\xfa\x0b\xcb\r\xbc?'
p1567
tp1568
Rp1569
ag45
(g49
S'\xee6\xb6\xf5\xb3\xe0\xa5?'
p1570
tp1571
Rp1572
ag45
(g49
S'R\r\xa57\x841\xb1?'
p1573
tp1574
Rp1575
ag45
(g49
S'Om\xd4\xe0\xad\xc1\xa3?'
p1576
tp1577
Rp1578
ag45
(g49
S'm(aOdx\xb9?'
p1579
tp1580
Rp1581
ag45
(g49
S'Y\xa4\x19\x80&\x9b\xa3?'
p1582
tp1583
Rp1584
ag45
(g49
S'&\xb6]P\xfdN\xb4?'
p1585
tp1586
Rp1587
ag45
(g49
S'\xb4\x89\xf1+l\xa2\xb7?'
p1588
tp1589
Rp1590
ag45
(g49
S'\xa3\xac\x88Ao\xb1\xb5?'
p1591
tp1592
Rp1593
ag45
(g49
S'n\x935a\xa3\x03\x8c?'
p1594
tp1595
Rp1596
ag45
(g49
S'V\xb8\x9d\x94\x81\xb6\xbb?'
p1597
tp1598
Rp1599
ag45
(g49
S'\x12"d\xd8M\xac\xb3?'
p1600
tp1601
Rp1602
asI5
(lp1603
g45
(g49
S'\xae7\x84\xbf\xea\x81\x0e@'
p1604
tp1605
Rp1606
ag45
(g49
S'>h\r\x89\xb1@\x0e@'
p1607
tp1608
Rp1609
ag45
(g49
S'`\xaf\x1b\xfeW\x03\r@'
p1610
tp1611
Rp1612
ag45
(g49
S'\xc8m\xe1Y\xac\xc6\x0e@'
p1613
tp1614
Rp1615
ag45
(g49
S'C\xd1j&\xf5\x07\x0f@'
p1616
tp1617
Rp1618
ag45
(g49
S'F\xa1\xf3KM\xb3\x0e@'
p1619
tp1620
Rp1621
ag45
(g49
S'\x1c~\x1dD$!\x0e@'
p1622
tp1623
Rp1624
ag45
(g49
S'\x9e@\xe7E\xc1\xd1\x0e@'
p1625
tp1626
Rp1627
ag45
(g49
S'A\xeb\x94BN\xfc\x0e@'
p1628
tp1629
Rp1630
ag45
(g49
S"'\xfd{]\xa5T\x0e@"
p1631
tp1632
Rp1633
ag45
(g49
S'i\xc8zG\xb36\r@'
p1634
tp1635
Rp1636
ag45
(g49
S'\xf1_\x17\xad\xe3\x98\x0e@'
p1637
tp1638
Rp1639
ag45
(g49
S'I[\xab\xab\x1a\xaa\x0e@'
p1640
tp1641
Rp1642
ag45
(g49
S'\xb5\xe2\xc8\x84\x8a\xc6\x0e@'
p1643
tp1644
Rp1645
ag45
(g49
S'8\xdd\xf7\x90\xddD\x0e@'
p1646
tp1647
Rp1648
ag45
(g49
S'\x07\x1cc\xb5\xa4\x9f\x0e@'
p1649
tp1650
Rp1651
ag45
(g49
S'V\x9b\xf6\xe80\xf8\r@'
p1652
tp1653
Rp1654
ag45
(g49
S'\x9e\xfac\xee\xb4o\x0e@'
p1655
tp1656
Rp1657
ag45
(g49
S'Q4&p\x02>\t@'
p1658
tp1659
Rp1660
ag45
(g49
S'P\xbf\xa4UE\x02\x0c@'
p1661
tp1662
Rp1663
asI10
(lp1664
g45
(g49
S'\xcc\xd9\xa6\xa6\x05\xd8!@'
p1665
tp1666
Rp1667
ag45
(g49
S'BpM\x8c\xd6\xd8!@'
p1668
tp1669
Rp1670
ag45
(g49
S'\xb9%r\x85\xf0\xc9!@'
p1671
tp1672
Rp1673
ag45
(g49
S'\xb2\x9f\x1f\xdcs\xcc!@'
p1674
tp1675
Rp1676
ag45
(g49
S'c\xfa=\xb9\x89\xda!@'
p1677
tp1678
Rp1679
ag45
(g49
S'\x87\xdf\x9e:\xdd\xd7!@'
p1680
tp1681
Rp1682
ag45
(g49
S'V\x12\xbd\xd5\xa6\xd8!@'
p1683
tp1684
Rp1685
ag45
(g49
S'\xb2\xd4\x10\r\x1e\xd2!@'
p1686
tp1687
Rp1688
ag45
(g49
S'\xc0\x13\x97>x\xc1!@'
p1689
tp1690
Rp1691
ag45
(g49
S'W\x03\x0e\xab\xe1\xd5!@'
p1692
tp1693
Rp1694
ag45
(g49
S'\x17\xc8\x9f\xd2\x04\xcb!@'
p1695
tp1696
Rp1697
ag45
(g49
S'\x1c\xe0\xdd\xcdz\xd3!@'
p1698
tp1699
Rp1700
ag45
(g49
S'd\xaa\xe29\xf3\xd1!@'
p1701
tp1702
Rp1703
ag45
(g49
S'e\xf1K\x9a\xe2\xd1!@'
p1704
tp1705
Rp1706
ag45
(g49
S'\xfcP\xcet\xcb\xd2!@'
p1707
tp1708
Rp1709
ag45
(g49
S'"\xa5\x92j \xd4!@'
p1710
tp1711
Rp1712
ag45
(g49
S'\xaa\x91\x13\xc7@\xcf!@'
p1713
tp1714
Rp1715
ag45
(g49
S'\xd0U6\xba\xa5\xd1!@'
p1716
tp1717
Rp1718
ag45
(g49
S'\x1e\xd6\xff\x0f\r\xdb!@'
p1719
tp1720
Rp1721
ag45
(g49
S'\xe4\xdaz&\x0b\xc9!@'
p1722
tp1723
Rp1724
asI75
(lp1725
g45
(g49
S'\xd7`\xd6A)zR@'
p1726
tp1727
Rp1728
ag45
(g49
S'nS<\xab\xf9yR@'
p1729
tp1730
Rp1731
ag45
(g49
S'\xee\xd2>b\x11zR@'
p1732
tp1733
Rp1734
ag45
(g49
S'\xe2B\xb3\xe4\x17zR@'
p1735
tp1736
Rp1737
ag45
(g49
S':\xd3\xd7K\x81yR@'
p1738
tp1739
Rp1740
ag45
(g49
S'\xd4\x12$\x91\xbfzR@'
p1741
tp1742
Rp1743
ag45
(g49
S'G\xb1\xd4\x84\x05yR@'
p1744
tp1745
Rp1746
ag45
(g49
S'+u\t(\xb3zR@'
p1747
tp1748
Rp1749
ag45
(g49
S'\x1b\x9a?\xfc\tzR@'
p1750
tp1751
Rp1752
ag45
(g49
S'\x18\xbe\xf4\x0c\x17yR@'
p1753
tp1754
Rp1755
ag45
(g49
S'\xbf;&e\x14{R@'
p1756
tp1757
Rp1758
ag45
(g49
S'\x1a\xdd\x80\xbd\xa5yR@'
p1759
tp1760
Rp1761
ag45
(g49
S'M\xbf\xd7,\xa2yR@'
p1762
tp1763
Rp1764
ag45
(g49
S'\x0e\xe2\x10\xac\xd8yR@'
p1765
tp1766
Rp1767
ag45
(g49
S'\x0e5D^\x18yR@'
p1768
tp1769
Rp1770
ag45
(g49
S'\x94s\xca\xf3\xedyR@'
p1771
tp1772
Rp1773
ag45
(g49
S'\x14\xf4\xe0y\xe8yR@'
p1774
tp1775
Rp1776
ag45
(g49
S'\x19\xd4\x1f\x8e_zR@'
p1777
tp1778
Rp1779
ag45
(g49
S'%\x8fr`NzR@'
p1780
tp1781
Rp1782
ag45
(g49
S'\xd0%U\x8f5zR@'
p1783
tp1784
Rp1785
asI50
(lp1786
g45
(g49
S'\xa0\xfcH;jpH@'
p1787
tp1788
Rp1789
ag45
(g49
S'Q{\xdb.}qH@'
p1790
tp1791
Rp1792
ag45
(g49
S'\xe6\x18\x1c,spH@'
p1793
tp1794
Rp1795
ag45
(g49
S'\x96\xcc\xff\x88\x12sH@'
p1796
tp1797
Rp1798
ag45
(g49
S'H\x89\x05\xc2[pH@'
p1799
tp1800
Rp1801
ag45
(g49
S':\xd0\xf0\x11\x05rH@'
p1802
tp1803
Rp1804
ag45
(g49
S'H\xea\xe9\x89xqH@'
p1805
tp1806
Rp1807
ag45
(g49
S'a|\xb3^\xf4nH@'
p1808
tp1809
Rp1810
ag45
(g49
S'B\\\xcd\x89\x0brH@'
p1811
tp1812
Rp1813
ag45
(g49
S'\x87I\xd1\xf4PpH@'
p1814
tp1815
Rp1816
ag45
(g49
S'\xf3\x91\xb9\xbe\xbdrH@'
p1817
tp1818
Rp1819
ag45
(g49
S'WcJ\nBqH@'
p1820
tp1821
Rp1822
ag45
(g49
S'\x0f\xaa\xb8]\xf6rH@'
p1823
tp1824
Rp1825
ag45
(g49
S'\xbfwa\x83\xb3nH@'
p1826
tp1827
Rp1828
ag45
(g49
S'\xee\xaf\xcf\x14QrH@'
p1829
tp1830
Rp1831
ag45
(g49
S'\xd3\r\xe55\tqH@'
p1832
tp1833
Rp1834
ag45
(g49
S'\x06\x11\xc7\xe4\xefrH@'
p1835
tp1836
Rp1837
ag45
(g49
S'M<U\xe4aqH@'
p1838
tp1839
Rp1840
ag45
(g49
S'!\xa8\xbb\xd9\xe4pH@'
p1841
tp1842
Rp1843
ag45
(g49
S'\xa5\\\xf5\xfd\xf8oH@'
p1844
tp1845
Rp1846
asI20
(lp1847
g45
(g49
S"k\x0e\x8d\x9c'\xea2@"
p1848
tp1849
Rp1850
ag45
(g49
S'\x9e\xb9\xbf\xf9\xb6\xe42@'
p1851
tp1852
Rp1853
ag45
(g49
S'\x96W\x94\x00\x00\xea2@'
p1854
tp1855
Rp1856
ag45
(g49
S'\xb8\x1f\x99\x9d\x81\xe72@'
p1857
tp1858
Rp1859
ag45
(g49
S'\x1c\x0fk\xb7\x95\xe62@'
p1860
tp1861
Rp1862
ag45
(g49
S'\x91\xec\xb2=*\xea2@'
p1863
tp1864
Rp1865
ag45
(g49
S'%\xba\xd6\x1e\xce\xe72@'
p1866
tp1867
Rp1868
ag45
(g49
S'\xf3z\x05\xf3\x17\xe92@'
p1869
tp1870
Rp1871
ag45
(g49
S'\xab\xa1\x7f\x8b\xad\xe72@'
p1872
tp1873
Rp1874
ag45
(g49
S'\xdaK\n\x0b1\xe72@'
p1875
tp1876
Rp1877
ag45
(g49
S'\xd2+\xa7\x0e\xef\xe62@'
p1878
tp1879
Rp1880
ag45
(g49
S'8l&\xa1\xb7\xe72@'
p1881
tp1882
Rp1883
ag45
(g49
S'!\xb5\x00\xfaz\xe92@'
p1884
tp1885
Rp1886
ag45
(g49
S'\xa7\xe47\xd5\x03\xeb2@'
p1887
tp1888
Rp1889
ag45
(g49
S'\x9a\xd7Gu,\xe72@'
p1890
tp1891
Rp1892
ag45
(g49
S'T\x8e\xe3\xdf\xd5\xe82@'
p1893
tp1894
Rp1895
ag45
(g49
S'z\t8u\xe0\xe72@'
p1896
tp1897
Rp1898
ag45
(g49
S'\x0c"\xd6B\xcd\xeb2@'
p1899
tp1900
Rp1901
ag45
(g49
S'hN\x9e\xad4\xe92@'
p1902
tp1903
Rp1904
ag45
(g49
S':\xa5\x1b\xbf\xb3\xeb2@'
p1905
tp1906
Rp1907
assg14
(dp1908
I2
(lp1909
g45
(g49
S'\x07\x92\x11\xf8\x97d\xef?'
p1910
tp1911
Rp1912
ag45
(g49
S'h\x1a\x0b\xbdr\xe3\xed?'
p1913
tp1914
Rp1915
ag45
(g49
S'\x05\t\x01\x8e\xb2\x82\xec?'
p1916
tp1917
Rp1918
ag45
(g49
S'\xc8\x1e\xb3B0\xdb\xec?'
p1919
tp1920
Rp1921
ag45
(g49
S'$1\xfb\x04\x9f\x99\xec?'
p1922
tp1923
Rp1924
ag45
(g49
S'Uh\xef\xee\xcd\\\xed?'
p1925
tp1926
Rp1927
ag45
(g49
S'V\x9d\xeb\x8d\xce,\xef?'
p1928
tp1929
Rp1930
ag45
(g49
S'\xa1\xb9J|u&\xee?'
p1931
tp1932
Rp1933
ag45
(g49
S'{u\xe4\x96\xb3\x81\xed?'
p1934
tp1935
Rp1936
ag45
(g49
S'Zh12\x03\x0b\xed?'
p1937
tp1938
Rp1939
ag45
(g49
S'\x85\xa4\xe5\xe5\xe2<\xed?'
p1940
tp1941
Rp1942
ag45
(g49
S'`PE\xda*w\xee?'
p1943
tp1944
Rp1945
ag45
(g49
S'/\xa2\x1e\x1f\x80B\xee?'
p1946
tp1947
Rp1948
ag45
(g49
S'\x00\xcb+t\x856\xed?'
p1949
tp1950
Rp1951
ag45
(g49
S'\xea\xdff\x14\x84\r\xed?'
p1952
tp1953
Rp1954
ag45
(g49
S'\xa0+n\x07P\x98\xee?'
p1955
tp1956
Rp1957
ag45
(g49
S'e\x91\x18\xbep8\xee?'
p1958
tp1959
Rp1960
ag45
(g49
S'!J\x7fO\xa2\xc6\xec?'
p1961
tp1962
Rp1963
ag45
(g49
S'm\x18~\xdd\x00:\xeb?'
p1964
tp1965
Rp1966
ag45
(g49
S'}\xcc7d\xe5\x12\xee?'
p1967
tp1968
Rp1969
asI5
(lp1970
g45
(g49
S'd\x85\x13\x84\xc1\xab\x0f@'
p1971
tp1972
Rp1973
ag45
(g49
S'\r1>\xd6\x14\xa3\x0f@'
p1974
tp1975
Rp1976
ag45
(g49
S'\xa4;\x065#\x96\x0f@'
p1977
tp1978
Rp1979
ag45
(g49
S'\xf9\x0c\x12\x99q\xa8\x0f@'
p1980
tp1981
Rp1982
ag45
(g49
S'\x90X\xd7\x1a\xef\xb6\x0f@'
p1983
tp1984
Rp1985
ag45
(g49
S'\xd9\x14#\xe7\x8de\x0f@'
p1986
tp1987
Rp1988
ag45
(g49
S'{\xd8\x03\x97\x8d\xbe\x0f@'
p1989
tp1990
Rp1991
ag45
(g49
S'B-\x1b\x82Y\xc8\x0f@'
p1992
tp1993
Rp1994
ag45
(g49
S'\xbef#\xcb\xd6\xb1\x0f@'
p1995
tp1996
Rp1997
ag45
(g49
S'=j\x84b\xd6\x82\x0f@'
p1998
tp1999
Rp2000
ag45
(g49
S'\x92\x91\xa1\x04\x10\xd0\x0f@'
p2001
tp2002
Rp2003
ag45
(g49
S'\xe1|q~\xb4\xd1\x0f@'
p2004
tp2005
Rp2006
ag45
(g49
S'{e\xdc\xc4\x9eR\x0f@'
p2007
tp2008
Rp2009
ag45
(g49
S'0\xbf\xb3W\x1fu\x0f@'
p2010
tp2011
Rp2012
ag45
(g49
S'\xc4>\x89\xf1\x9c\xc5\x0f@'
p2013
tp2014
Rp2015
ag45
(g49
S'\xad\x8e&\x8a\tV\x0f@'
p2016
tp2017
Rp2018
ag45
(g49
S'\x04\xf34\x93\x1f\xae\x0f@'
p2019
tp2020
Rp2021
ag45
(g49
S'v-\x7f\xb7w\xb3\x0f@'
p2022
tp2023
Rp2024
ag45
(g49
S'\xa3\x89\xab5\xb6\x9e\x0f@'
p2025
tp2026
Rp2027
ag45
(g49
S'\xdc$Y3\n\x99\x0f@'
p2028
tp2029
Rp2030
asI10
(lp2031
g45
(g49
S'O\x8b\x10\xc85\xf0!@'
p2032
tp2033
Rp2034
ag45
(g49
S'\x7f\x08`\xf6\x82\xdd!@'
p2035
tp2036
Rp2037
ag45
(g49
S'\x9cx\x8c\xb8`\xf8!@'
p2038
tp2039
Rp2040
ag45
(g49
S'2`S"\x03\xf7!@'
p2041
tp2042
Rp2043
ag45
(g49
S'\xee\xb6K+\xb0\xe8!@'
p2044
tp2045
Rp2046
ag45
(g49
S'*9E_#\xde!@'
p2047
tp2048
Rp2049
ag45
(g49
S'\x8cn\xcb\t\xe4\xf6!@'
p2050
tp2051
Rp2052
ag45
(g49
S'P\x95\x8a\xaa\xfe\xe3!@'
p2053
tp2054
Rp2055
ag45
(g49
S'R\xa5\xb4%\xe1\xe8!@'
p2056
tp2057
Rp2058
ag45
(g49
S'K_~\x19j\xe6!@'
p2059
tp2060
Rp2061
ag45
(g49
S'sq\xff\x05e\xeb!@'
p2062
tp2063
Rp2064
ag45
(g49
S'\x94\x1c4\xaa^\xe6!@'
p2065
tp2066
Rp2067
ag45
(g49
S'\xc7\xeeX\x9a`\xf0!@'
p2068
tp2069
Rp2070
ag45
(g49
S'\xf9`)kh\xf3!@'
p2071
tp2072
Rp2073
ag45
(g49
S'{\xd0d\x904\xf7!@'
p2074
tp2075
Rp2076
ag45
(g49
S'\xd8\x83\x8c\x18\xfb\xf5!@'
p2077
tp2078
Rp2079
ag45
(g49
S'\x97\x01\xa7(g\xe7!@'
p2080
tp2081
Rp2082
ag45
(g49
S'+a\x18P\xba\xf8!@'
p2083
tp2084
Rp2085
ag45
(g49
S"\x9e\x04\xac'\xe3\xf0!@"
p2086
tp2087
Rp2088
ag45
(g49
S'\xd0F\x89"Q\xdd!@'
p2089
tp2090
Rp2091
asI75
(lp2092
g45
(g49
S'\xb3\x97\x8c\x94\x06~R@'
p2093
tp2094
Rp2095
ag45
(g49
S'\x15p\\\x9e\xd8~R@'
p2096
tp2097
Rp2098
ag45
(g49
S'\xc8\xe4z\xcc{|R@'
p2099
tp2100
Rp2101
ag45
(g49
S'9\xc9\x9a\x87*zR@'
p2102
tp2103
Rp2104
ag45
(g49
S'}\xa1*\x8bJ}R@'
p2105
tp2106
Rp2107
ag45
(g49
S'\xbb:)qtzR@'
p2108
tp2109
Rp2110
ag45
(g49
S'\xef\xdf\xef\xf9\xe0}R@'
p2111
tp2112
Rp2113
ag45
(g49
S'/\x83\x9e&\xe6~R@'
p2114
tp2115
Rp2116
ag45
(g49
S'\xbe\xe2\xc4\xe8$|R@'
p2117
tp2118
Rp2119
ag45
(g49
S'P\xcc\xdf\x01Y}R@'
p2120
tp2121
Rp2122
ag45
(g49
S'\xfc%p?\x87~R@'
p2123
tp2124
Rp2125
ag45
(g49
S'vI\xd9\xb4\xa3}R@'
p2126
tp2127
Rp2128
ag45
(g49
S'\xa9\xbc`\xf50|R@'
p2129
tp2130
Rp2131
ag45
(g49
S'\x14\\\xcc@\xc6|R@'
p2132
tp2133
Rp2134
ag45
(g49
S'\xees&\xbf:\x7fR@'
p2135
tp2136
Rp2137
ag45
(g49
S'\x10\xa1%3\xcd~R@'
p2138
tp2139
Rp2140
ag45
(g49
S'\xd3\xe4\x0c\xb6\xc9~R@'
p2141
tp2142
Rp2143
ag45
(g49
S'\x06\xb6c\xfb\x97~R@'
p2144
tp2145
Rp2146
ag45
(g49
S'\x1f[\xf8\xee\xe2}R@'
p2147
tp2148
Rp2149
ag45
(g49
S'\x10G\xa7\xc4\xaa~R@'
p2150
tp2151
Rp2152
asI50
(lp2153
g45
(g49
S'o\x8c[\xb2>{H@'
p2154
tp2155
Rp2156
ag45
(g49
S'\x03\xe8\xed\xbcH{H@'
p2157
tp2158
Rp2159
ag45
(g49
S'6\x96\xbb\x95rzH@'
p2160
tp2161
Rp2162
ag45
(g49
S'\xf6s\x9fT\xa6xH@'
p2163
tp2164
Rp2165
ag45
(g49
S'S\x85\x16\x0f\x9bzH@'
p2166
tp2167
Rp2168
ag45
(g49
S"7\x1b\x08'\xa7|H@"
p2169
tp2170
Rp2171
ag45
(g49
S'\xc3\xc7S\x1ab~H@'
p2172
tp2173
Rp2174
ag45
(g49
S'h\xe2f3l|H@'
p2175
tp2176
Rp2177
ag45
(g49
S'B\xc3~\x890zH@'
p2178
tp2179
Rp2180
ag45
(g49
S'\x9b\x8fA\xf5\xef}H@'
p2181
tp2182
Rp2183
ag45
(g49
S'\x8c\xc4\x8d8.}H@'
p2184
tp2185
Rp2186
ag45
(g49
S'1.\x0b\x16{|H@'
p2187
tp2188
Rp2189
ag45
(g49
S'\xd6\xc8P\xf5\xad}H@'
p2190
tp2191
Rp2192
ag45
(g49
S'\x84G\x13\x94\x90|H@'
p2193
tp2194
Rp2195
ag45
(g49
S'h>\xb1d8~H@'
p2196
tp2197
Rp2198
ag45
(g49
S'\xb2\xa3\x1b2\xb5{H@'
p2199
tp2200
Rp2201
ag45
(g49
S'\x94LN}\xf1wH@'
p2202
tp2203
Rp2204
ag45
(g49
S'\xe4\xb9\xd6<\xe7rH@'
p2205
tp2206
Rp2207
ag45
(g49
S'\xd8`\x15\xeb\x9a}H@'
p2208
tp2209
Rp2210
ag45
(g49
S'\x93\x0c\x92\xf0\xb6uH@'
p2211
tp2212
Rp2213
asI20
(lp2214
g45
(g49
S'^\x18\xab\x13\xb6\xf82@'
p2215
tp2216
Rp2217
ag45
(g49
S'\xceKA\x9e\xab\xf72@'
p2218
tp2219
Rp2220
ag45
(g49
S'\xda\x00 \xf1\xa4\xf42@'
p2221
tp2222
Rp2223
ag45
(g49
S'\xd1\x94\xbb\x88\xab\xf12@'
p2224
tp2225
Rp2226
ag45
(g49
S')bf\x13\xa2\xf62@'
p2227
tp2228
Rp2229
ag45
(g49
S'Xh\xacH\xf1\xf52@'
p2230
tp2231
Rp2232
ag45
(g49
S'~\x1f\xdd\xa7\xb5\xeb2@'
p2233
tp2234
Rp2235
ag45
(g49
S'\xbf\xe8\x12\x98=\xf72@'
p2236
tp2237
Rp2238
ag45
(g49
S'\xfd\xa6{\x88\xeb\xf72@'
p2239
tp2240
Rp2241
ag45
(g49
S'8M\xce**\xfa2@'
p2242
tp2243
Rp2244
ag45
(g49
S'\r\xe3\xb6~o\xf92@'
p2245
tp2246
Rp2247
ag45
(g49
S'\x89|\xc1q\xac\xed2@'
p2248
tp2249
Rp2250
ag45
(g49
S'\xac\x94\xad\xd2\x17\xf92@'
p2251
tp2252
Rp2253
ag45
(g49
S'X\x91\xd2r\xe9\xfb2@'
p2254
tp2255
Rp2256
ag45
(g49
S'[*\x87\xd4\x04\xf82@'
p2257
tp2258
Rp2259
ag45
(g49
S'\x1d\xc2\xe0$\xd1\xf22@'
p2260
tp2261
Rp2262
ag45
(g49
S'\x8f\xbf<\xe5t\xfd2@'
p2263
tp2264
Rp2265
ag45
(g49
S'\xd1\xe3\xdd\xd0\x92\xf92@'
p2266
tp2267
Rp2268
ag45
(g49
S'\x8b\x12\x81e\x1e\xef2@'
p2269
tp2270
Rp2271
ag45
(g49
S'\xc1\x05\x05\xa3\xa8\xee2@'
p2272
tp2273
Rp2274
assssS'id'
p2275
I1
s.