(dp0
S'name'
p1
S'effective-dimension-knowledge'
p2
sS'settings'
p3
(dp4
S'num_runs'
p5
I20
sS'problems'
p6
(lp7
I1
aI2
aI6
aI8
asS'v'
p8
I10000
sS'm'
p9
I5
sS'n'
p10
I10000
ssS'algs'
p11
(lp12
S'RESOO'
p13
aS'SRESOO'
p14
aS'EmbeddedHunter'
p15
asS'at'
p16
(lp17
I2
aI5
aI8
aI25
aI75
aI250
asS'data'
p18
(dp19
I8
(dp20
g13
(dp21
I2
(lp22
F3.911885617365304
aF4.978475878623005
aF3.154591438052773
aF3.1100391348508905
aF3.7567039825424513
aF5.6833939491065735
aF2.983437242421602
aF5.4354913999980745
aF2.748186767101569
aF3.4991614455183186
aF1.2224008724367157
aF5.030044788304654
aF2.940131507000587
aF2.5799282239871855
aF2.5834669182823657
aF3.1054447260926783
aF2.924087413948769
aF2.6073838116718098
aF2.6170453277441372
aF6.229975753962297
asI5
(lp23
F4.990349802994256
aF7.003918000049641
aF5.310075156329503
aF7.287604687388473
aF6.8398852494523386
aF5.626671755793883
aF4.924197028590381
aF5.7127788338903756
aF6.985316939765893
aF6.495648077382022
aF6.860620145072785
aF6.114192951188446
aF7.1903704545697025
aF3.796180639276081
aF6.2413309637398555
aF5.023121346740535
aF5.734419158583702
aF7.583436926926456
aF7.28000269007234
aF5.582346222497794
asI8
(lp24
F8.056566582322365
aF7.9975354598701855
aF7.7811919429204615
aF7.64742089048203
aF7.024323886078982
aF6.334104069909305
aF8.231355553440137
aF8.13614930229441
aF7.277855735328256
aF6.460100427079805
aF5.450182751344144
aF8.103220961829287
aF7.581661895604942
aF7.5123601515766225
aF7.654768336372978
aF8.131913206785617
aF6.798355715431393
aF7.214791277920876
aF6.937840696168946
aF8.266363906802301
asI75
(lp25
F9.050856112542245
aF8.960793415691912
aF9.07280977743088
aF8.967553990919587
aF8.956280689729711
aF8.875734498862345
aF8.798610595736697
aF8.92277228689519
aF8.88258026916516
aF9.03944242119343
aF9.021319872908114
aF8.906637219244322
aF8.953808973240179
aF9.004370191845327
aF9.03872282508868
aF8.855702631183906
aF8.789406996387738
aF8.973565547097833
aF9.026182260027271
aF8.771942870530882
asI25
(lp26
F8.153712708434785
aF8.78478462851473
aF8.827406279426173
aF8.513846540979367
aF8.851531019941952
aF8.713326361714525
aF8.77599731547414
aF8.519886377780155
aF8.469576139058152
aF8.356549377906095
aF8.463800074885214
aF8.900980085649818
aF8.510161800782887
aF8.55218919599168
aF8.572769239764757
aF8.44742539084815
aF8.542226465479596
aF8.410832776856129
aF8.278075875487627
aF8.296756718057129
asI250
(lp27
F9.165307832646214
aF9.056274691842987
aF9.102966483884746
aF9.136371644601676
aF9.160731979095207
aF9.11968867379447
aF9.133276169051477
aF9.157758329937176
aF9.104630085305693
aF9.050554053821546
aF9.135120091030892
aF9.196102535674552
aF9.063764812458743
aF9.13734156615734
aF9.141119597068109
aF9.12581891192885
aF9.149808339811853
aF9.104327839926642
aF9.11688664827506
aF9.135173929221297
assg15
(dp28
I2
(lp29
F0.2111273958382509
aF0.3486198828163265
aF0.6929389342528833
aF0.1752986432068444
aF0.0793972368469622
aF0.16337898549641539
aF0.20886846794512737
aF0.8158473362515442
aF0.3334727901925274
aF0.0580409924674723
aF0.577911366658935
aF0.3941266888279853
aF0.23987914570231483
aF0.2068519362882495
aF0.24149303081713258
aF0.1913616298256149
aF0.1181944196339697
aF0.1856952008211441
aF0.39129114104207874
aF0.06067727800730838
asI5
(lp30
F2.394877705031171
aF3.586940642617137
aF2.7978424215688986
aF3.805198462479503
aF3.5371226667244327
aF3.4719038464351795
aF3.585622516467098
aF3.360091615520638
aF3.561647030541853
aF3.2887192753727885
aF3.1157027959504977
aF4.085064741812179
aF3.517739434887386
aF3.8122010329091442
aF3.495540679299151
aF3.367908667331197
aF4.120215495108013
aF3.1526901581970077
aF3.260632152585139
aF3.407076755938814
asI8
(lp31
F4.825934160493144
aF4.780730118873734
aF4.340435864308283
aF4.744255460106512
aF4.691382534231572
aF5.021963454611786
aF4.092251947694184
aF4.067059333298143
aF5.355491347389854
aF5.528587040858252
aF4.4839749906168755
aF5.002895522401804
aF4.8331417111535195
aF4.737107757202015
aF4.368671714020785
aF5.511209823060337
aF5.2506945400722
aF5.300375890956811
aF5.271503107688989
aF5.16714146857608
asI75
(lp32
F8.592573996474478
aF8.57601148444454
aF8.573858715059437
aF8.624369688328356
aF8.648441991428873
aF8.614809617585998
aF8.585900203986055
aF8.639402765984363
aF8.605900951293002
aF8.384516907967265
aF8.591656792217485
aF8.629106137397686
aF8.585468723902688
aF8.550435726860297
aF8.57887199342221
aF8.436863167840889
aF8.54120999694981
aF8.648230382223701
aF8.600027144208088
aF8.518976601017728
asI25
(lp33
F8.177976941199772
aF7.55435887083598
aF7.672408988685664
aF7.647040724496872
aF8.080382468139778
aF7.913371565580279
aF7.389197439612545
aF7.51246172097172
aF7.349452609925445
aF7.970706632851648
aF7.4514352407312465
aF7.588204560802698
aF7.866400261769275
aF7.814482584555082
aF7.947520789637686
aF7.182069388238185
aF7.876246753387299
aF7.577059364559574
aF7.4112130650178205
aF7.198694411746109
asI250
(lp34
F8.932667287877468
aF8.866963431626768
aF8.914213693707485
aF8.919067908476592
aF8.896817787674465
aF8.931230753846018
aF8.934189271258772
aF8.888231877521251
aF8.958333713349376
aF8.95910932628036
aF8.917669555206132
aF8.943543835634411
aF8.95388058102485
aF8.930315946411316
aF8.964075244031262
aF8.908660552777397
aF8.94672279475058
aF8.896581448318212
aF8.943933774656953
aF8.938223905603431
assg14
(dp35
I2
(lp36
F9.258796994917075
aF9.21411373326725
aF9.136674800288816
aF8.985480749551108
aF9.13714054735997
aF9.219524411199941
aF9.165870193506006
aF9.234298156626897
aF9.171643192876887
aF9.066927501691033
aF9.082395142602353
aF9.10229268243042
aF9.106944483240238
aF9.202450201691331
aF9.084757341808023
aF9.13030023521766
aF9.033450796641347
aF8.976385105572335
aF9.197394751581097
aF9.139074337831302
asI5
(lp37
F9.310064534875169
aF9.246376832748489
aF9.280770068018544
aF9.208838466670185
aF9.319908729302385
aF9.284335088564756
aF9.173325133999983
aF9.23391765606664
aF9.356335800907228
aF9.178642097051135
aF9.199251438393821
aF9.204455736415264
aF9.283978904917472
aF9.28284255395591
aF9.314960892186916
aF9.256795002578217
aF9.262767412916665
aF9.333175580479745
aF9.185847439965121
aF9.375040658297165
asI8
(lp38
F9.340771665788905
aF9.305445614220835
aF9.352419752145034
aF9.343347250311588
aF9.189868729371536
aF9.22831639804119
aF9.318029942252895
aF9.323382148814337
aF9.370082827293812
aF9.269586100274523
aF9.302055930077259
aF9.241859394367879
aF9.360760317148177
aF9.327810453194976
aF9.316436192011894
aF9.279425403470949
aF9.330530482392637
aF9.33788838985703
aF9.37321862922105
aF9.358394608670125
asI75
(lp39
F9.416260952359417
aF9.411546272211837
aF9.427795719040388
aF9.429914340791598
aF9.426173739710858
aF9.395161353836576
aF9.428451396418867
aF9.429353203526228
aF9.42505930189075
aF9.42110942124369
aF9.429070183161157
aF9.422357075265362
aF9.429262621529455
aF9.417750849983692
aF9.42275162674817
aF9.407891113033841
aF9.404528937357796
aF9.389198893573926
aF9.377238310471437
aF9.414032121846375
asI25
(lp40
F9.398702671898088
aF9.35064074666634
aF9.371492194551243
aF9.360126110134328
aF9.41556978844034
aF9.37505032978441
aF9.36824788927745
aF9.396537571661767
aF9.394090469891625
aF9.371576230536645
aF9.386134883736636
aF9.340818530289862
aF9.375201650948158
aF9.403342462014123
aF9.412960546786687
aF9.395015449636329
aF9.329500673058217
aF9.400243125894391
aF9.3851038823889
aF9.362786381563515
asI250
(lp41
F9.424657375641118
aF9.427446435297455
aF9.441759619964712
aF9.429013785463473
aF9.444018435094106
aF9.446398665605539
aF9.444968522505818
aF9.440740646720524
aF9.43614273536795
aF9.43144571934139
aF9.44366104060586
aF9.41643952739156
aF9.429389159875111
aF9.43790592017145
aF9.443515130914891
aF9.434308725152054
aF9.436991900538642
aF9.433797524615693
aF9.437616947531732
aF9.442183038432027
asssI1
(dp42
g13
(dp43
I2
(lp44
cnumpy.core.multiarray
scalar
p45
(cnumpy
dtype
p46
(S'f8'
p47
I0
I1
tp48
Rp49
(I3
S'<'
p50
NNNI-1
I-1
I0
tp51
bS'\xa0\xc0\xb9n\xf6\x83J@'
p52
tp53
Rp54
ag45
(g49
S'0RA\xc0\xef\x01i@'
p55
tp56
Rp57
ag45
(g49
S'\xd2\xfe\xb6\x15.\xd2\xab@'
p58
tp59
Rp60
ag45
(g49
S'\xf6\xbe<\xb1\xb4&\xc1@'
p61
tp62
Rp63
ag45
(g49
S'\x9d4\xf2F\xbc\xafs?'
p64
tp65
Rp66
ag45
(g49
S'\x0b\xf3v\x1c\x89*s@'
p67
tp68
Rp69
ag45
(g49
S'\xfdmA,\x88Mc@'
p70
tp71
Rp72
ag45
(g49
S'\xc9\xb7\x0fJ\xf5]/@'
p73
tp74
Rp75
ag45
(g49
S'^\xe9\xf6\x01\xc2\xc9\x19@'
p76
tp77
Rp78
ag45
(g49
S"\xec\xe9\x89a\x16\x9d'@"
p79
tp80
Rp81
ag45
(g49
S'\x153\x84_\xc2a\x9f@'
p82
tp83
Rp84
ag45
(g49
S')\xe5f\xa5U%\xfc?'
p85
tp86
Rp87
ag45
(g49
S'F\x0b\xf3\xd2\xeb\xca\xd3@'
p88
tp89
Rp90
ag45
(g49
S'\xb35U@\xd0\xa0\r@'
p91
tp92
Rp93
ag45
(g49
S'\x87\x99\xd7Q\xde^\xcc@'
p94
tp95
Rp96
ag45
(g49
S'b\x99\xa0\xb0\xbe5\xf2?'
p97
tp98
Rp99
ag45
(g49
S'\x8d;\xbb\x1f\x0e\x86y@'
p100
tp101
Rp102
ag45
(g49
S'\x81z\xd5o\xe3\x10\xf0?'
p103
tp104
Rp105
ag45
(g49
S'p\xe9_\xd3d\xcfF@'
p106
tp107
Rp108
ag45
(g49
S'\xfa\xd3\x1d\x85M,4@'
p109
tp110
Rp111
asI5
(lp112
g45
(g49
S'B\x8b\x1d%\xe7\xa3Q@'
p113
tp114
Rp115
ag45
(g49
S'\x13\x85\x0f\xe2y{=@'
p116
tp117
Rp118
ag45
(g49
S'\xe5\x9a\xfd\xe7"?z@'
p119
tp120
Rp121
ag45
(g49
S'\x89\x0f@\xf2:\x1f\xde@'
p122
tp123
Rp124
ag45
(g49
S'\xed\xb2\xc7\x80\x19\xba\xac@'
p125
tp126
Rp127
ag45
(g49
S'\x03\x9b\x91\xa4\x12\r5@'
p128
tp129
Rp130
ag45
(g49
S"OM\x947\x8c\xa4'@"
p131
tp132
Rp133
ag45
(g49
S'\xda[\x00\x03~\x9bH@'
p134
tp135
Rp136
ag45
(g49
S'B\xcbpT\xf3\x1e3@'
p137
tp138
Rp139
ag45
(g49
S'\x14\xb4\x88xX*6@'
p140
tp141
Rp142
ag45
(g49
S'\xfaF\xb5\xc0\x9b\x93,@'
p143
tp144
Rp145
ag45
(g49
S'\x0b8\x0cr\xb8/<@'
p146
tp147
Rp148
ag45
(g49
S'\x93\xd3;\x90NF\xc0@'
p149
tp150
Rp151
ag45
(g49
S'8O\xb6\xd1\x90\xec4@'
p152
tp153
Rp154
ag45
(g49
S'R,\x7f\xd9\xf0\x13O@'
p155
tp156
Rp157
ag45
(g49
S'b"\xe3w\xf7[8@'
p158
tp159
Rp160
ag45
(g49
S'Ft\x9f!\x0e\xab\x15@'
p161
tp162
Rp163
ag45
(g49
S'\xf6~\x12 ^Q@@'
p164
tp165
Rp166
ag45
(g49
S'\xd2\xf7\x0b\xda\x1f\x94@@'
p167
tp168
Rp169
ag45
(g49
S'\xeb\xb1/\xe6HaJ@'
p170
tp171
Rp172
asI8
(lp173
g45
(g49
S'\xb7I\xae8\x1d$q@'
p174
tp175
Rp176
ag45
(g49
S"?f\xcc\x95'\x1d^@"
p177
tp178
Rp179
ag45
(g49
S'\xae\x13\xf6\x1e\xc0\x02\x87@'
p180
tp181
Rp182
ag45
(g49
S'@R\xe1\xcb\x1a\xf8O@'
p183
tp184
Rp185
ag45
(g49
S'\xbf3\x17O/!J@'
p186
tp187
Rp188
ag45
(g49
S"n\xf3\n\xa3'\x8e\x91@"
p189
tp190
Rp191
ag45
(g49
S'\xf4\x86\xf5\r\x9a\xefG@'
p192
tp193
Rp194
ag45
(g49
S'b\xf4\xb2K\x18\xbf\xf2@'
p195
tp196
Rp197
ag45
(g49
S'8\xdf\xdf[\xea\xdcQ@'
p198
tp199
Rp200
ag45
(g49
S':6\x95`\x06\x0bQ@'
p201
tp202
Rp203
ag45
(g49
S'\xc1\x9b[?\xa4`\x92@'
p204
tp205
Rp206
ag45
(g49
S'\xe9\x14\xf2\x91Kj=@'
p207
tp208
Rp209
ag45
(g49
S'\x9d.\xff\xb8\xf5\xf4\xd1@'
p210
tp211
Rp212
ag45
(g49
S'X\xcf7U]\xe0\x89@'
p213
tp214
Rp215
ag45
(g49
S'\xa9y\n&#\x93e@'
p216
tp217
Rp218
ag45
(g49
S'\x7f\x18\xb6\xc1E\xbce@'
p219
tp220
Rp221
ag45
(g49
S'}{@\xadn:^@'
p222
tp223
Rp224
ag45
(g49
S'\xe2\xd4\xed\xed:\xfdJ@'
p225
tp226
Rp227
ag45
(g49
S'\x99H\xdb\x0bI\\\xcb@'
p228
tp229
Rp230
ag45
(g49
S'\x8e*\xf2}o\xd2\xb1@'
p231
tp232
Rp233
asI75
(lp234
g45
(g49
S'\x03\x8552\xceC\x85@'
p235
tp236
Rp237
ag45
(g49
S'\xa9\xb7\xfcI\xbdS\xd1@'
p238
tp239
Rp240
ag45
(g49
S'\xd8Zp\xebt\x08\x81@'
p241
tp242
Rp243
ag45
(g49
S'\xd0\x80\xc2\xcd?\xf3\x90@'
p244
tp245
Rp246
ag45
(g49
S'\xcd\x8c\xeco\xe8\x10\x82@'
p247
tp248
Rp249
ag45
(g49
S'\xdb\x96\xc5\x87U\xc1\x83@'
p250
tp251
Rp252
ag45
(g49
S'\x0e\xd0\xad\n\xdc{\x86@'
p253
tp254
Rp255
ag45
(g49
S'\x9c\xd6-\x92\x01?\xd7@'
p256
tp257
Rp258
ag45
(g49
S'rW\xb3x\xab\xdc\x81@'
p259
tp260
Rp261
ag45
(g49
S'\x03\x01h~\x01\xfd\x83@'
p262
tp263
Rp264
ag45
(g49
S'\xf4\x15\x87\x0b\xd8\x8b\x87@'
p265
tp266
Rp267
ag45
(g49
S'3:\xe6\xa3:\x01\x87@'
p268
tp269
Rp270
ag45
(g49
S'dD\xc7:\xe2V\xc8@'
p271
tp272
Rp273
ag45
(g49
S'^>lqZ\xaa\x81@'
p274
tp275
Rp276
ag45
(g49
S'\x01h=\xa4y\xc0\x81@'
p277
tp278
Rp279
ag45
(g49
S'\x9d\x89/\x8dT\xa0\xc7@'
p280
tp281
Rp282
ag45
(g49
S'\x00\xf5VS \xc8\xe1@'
p283
tp284
Rp285
ag45
(g49
S'\x8c\xa45\x89\xdc\x18\x83@'
p286
tp287
Rp288
ag45
(g49
S'\xb1?\xb9Y\xdfO\x86@'
p289
tp290
Rp291
ag45
(g49
S'\x8e\xcc<\xf1\xf9\x12\x82@'
p292
tp293
Rp294
asI25
(lp295
g45
(g49
S'\xf3\xf4\xffvT\xb1s@'
p296
tp297
Rp298
ag45
(g49
S'D\x18\x92\xba\x95\xf1m@'
p299
tp300
Rp301
ag45
(g49
S'\xed<t\x0bp\x96c@'
p302
tp303
Rp304
ag45
(g49
S'K\x90\x7f2\x04\x11f@'
p305
tp306
Rp307
ag45
(g49
S'7\x1e\x9e\x87\x16\x07\x84@'
p308
tp309
Rp310
ag45
(g49
S'\xc0\xa5\t\x1a\x80\x89i@'
p311
tp312
Rp313
ag45
(g49
S'\xdf\xc9%\xd59\x1an@'
p314
tp315
Rp316
ag45
(g49
S'\xa2\xab`bb;\xe3@'
p317
tp318
Rp319
ag45
(g49
S'\x1b\xb5\xa4<E\xa1i@'
p320
tp321
Rp322
ag45
(g49
S'\xa1\x12$h?\x9e\xb2@'
p323
tp324
Rp325
ag45
(g49
S'\xfc\x08\x1f\x9c!\xd1h@'
p326
tp327
Rp328
ag45
(g49
S'\x163\x14\xe3\xcf<o@'
p329
tp330
Rp331
ag45
(g49
S'\x90\xe1\x8aP{\xc4\xc3@'
p332
tp333
Rp334
ag45
(g49
S'\x15sK\xf75\xb8p@'
p335
tp336
Rp337
ag45
(g49
S'\xed\xdfQ\x03<\xca^@'
p338
tp339
Rp340
ag45
(g49
S'\xc9\xe2M\x85K\xb9\x9a@'
p341
tp342
Rp343
ag45
(g49
S'\x19\xc1,\xc8l\x94k@'
p344
tp345
Rp346
ag45
(g49
S'=\xbc\x89*M\xd3`@'
p347
tp348
Rp349
ag45
(g49
S'\x1b\xbe\xc66\xe9@`@'
p350
tp351
Rp352
ag45
(g49
S'\xbc8\xa8\\x\xc6`@'
p353
tp354
Rp355
asI250
(lp356
g45
(g49
S'\xf1<\x14\xf7P\x07\xb3@'
p357
tp358
Rp359
ag45
(g49
S'\x89\x1a`\n\xf2H\x9d@'
p360
tp361
Rp362
ag45
(g49
S'\xef\xeff\x1bL\x1e\xa2@'
p363
tp364
Rp365
ag45
(g49
S'G\x83\xd5\x92,V\x9e@'
p366
tp367
Rp368
ag45
(g49
S'\x14a:}=o\xa0@'
p369
tp370
Rp371
ag45
(g49
S'\xad\xa0\xa7\xa1c\xb5\xa0@'
p372
tp373
Rp374
ag45
(g49
S'z\xde\xd7dY\xf6\x9d@'
p375
tp376
Rp377
ag45
(g49
S'4\xaf\xefb\xac\x97\xa0@'
p378
tp379
Rp380
ag45
(g49
S'i\x86)\x16\xb6\xf3\x9e@'
p381
tp382
Rp383
ag45
(g49
S'\x8b\x1do\x07\xf0!\x9e@'
p384
tp385
Rp386
ag45
(g49
S'\xd1\x08J\x1a\xabA\xb4@'
p387
tp388
Rp389
ag45
(g49
S'\x95#\xce|$[\x9f@'
p390
tp391
Rp392
ag45
(g49
S'\x8f\xc8\xee\xc2\xf3\xf6\xa0@'
p393
tp394
Rp395
ag45
(g49
S'\x98\x89>\xf4\xefV\xa0@'
p396
tp397
Rp398
ag45
(g49
S'\xee\x17/#\xe7\xe0\xa1@'
p399
tp400
Rp401
ag45
(g49
S'\xbf\xbbHn\xa8\xb6\x9b@'
p402
tp403
Rp404
ag45
(g49
S'\xa0\x17d\xd7n\xe4\xa0@'
p405
tp406
Rp407
ag45
(g49
S'\xf1\xf3\xa6\xc3#\x89\x9d@'
p408
tp409
Rp410
ag45
(g49
S'P)\x1e\xc3J\x16\xa0@'
p411
tp412
Rp413
ag45
(g49
S'B\xaa}3\xa0\xe8\xa0@'
p414
tp415
Rp416
assg15
(dp417
I2
(lp418
g45
(g49
S'\x1a1\xb5_T$\xf8?'
p419
tp420
Rp421
ag45
(g49
S'\x82\xf3z\xec\x9b\x91\x82?'
p422
tp423
Rp424
ag45
(g49
S'!\x16\x9aq\x0bh\xe9?'
p425
tp426
Rp427
ag45
(g49
S'\xde\x1c[\xaa\xe1\xf3\xdf?'
p428
tp429
Rp430
ag45
(g49
S'\xbcp\xbdb\xf0\xb4\xdc?'
p431
tp432
Rp433
ag45
(g49
S'\xcc\xab\x8c\xa2\x86\xb2\xf9?'
p434
tp435
Rp436
ag45
(g49
S'\xd5>\xb3\xb8\x88\x10\x0b@'
p437
tp438
Rp439
ag45
(g49
S'(\xac\x05\xe8\xa4\x0e\xf8?'
p440
tp441
Rp442
ag45
(g49
S'\x14\xce\xa1\xdaC\xae\xe2?'
p443
tp444
Rp445
ag45
(g49
S'\x07\xc1\x95mal\xdd?'
p446
tp447
Rp448
ag45
(g49
S'\x0e\x8c3\xed\xd61\xe3?'
p449
tp450
Rp451
ag45
(g49
S'\\\xbe\xe6rA\xd3\xbe?'
p452
tp453
Rp454
ag45
(g49
S'$SV\xd6\x8b\xfb\xf0?'
p455
tp456
Rp457
ag45
(g49
S'\xe4!\xe3\xa3\xe6\xeb\x01@'
p458
tp459
Rp460
ag45
(g49
S'?\x92\xfd\t\xf8Q\xc8?'
p461
tp462
Rp463
ag45
(g49
S'\xe1\xd0\xb7\x9e\x8a)\xe4?'
p464
tp465
Rp466
ag45
(g49
S'{\xf2b\xa1\xbcQ\xe0?'
p467
tp468
Rp469
ag45
(g49
S'\xc4\xab\xfc\x96\x05&\xd5?'
p470
tp471
Rp472
ag45
(g49
S'\xcc\xe4\x9f\xd9\xd6P\xcd?'
p473
tp474
Rp475
ag45
(g49
S"\x08\xe0\xac'\xc0\xb3\xd7?"
p476
tp477
Rp478
asI5
(lp479
g45
(g49
S'\x13\x1d\xb7N\x9az,@'
p480
tp481
Rp482
ag45
(g49
S'\xba\x88s3\x05\x84\x12@'
p483
tp484
Rp485
ag45
(g49
S'\xb5\x92\xfa\x9f\xa1K\x10@'
p486
tp487
Rp488
ag45
(g49
S'n\xf1%\xf2\xf4\x08%@'
p489
tp490
Rp491
ag45
(g49
S'\x0ex\x07|_\xc1\x13@'
p492
tp493
Rp494
ag45
(g49
S'\xcc\xbcO\x18\x07\xef\x1f@'
p495
tp496
Rp497
ag45
(g49
S'j\xca)|\xe8\xc7\x11@'
p498
tp499
Rp500
ag45
(g49
S'\xe3\x8c\xe8\x02\xa5=&@'
p501
tp502
Rp503
ag45
(g49
S'\xb4\x820\xdf\x1e\xec#@'
p504
tp505
Rp506
ag45
(g49
S'oA9\xadrw0@'
p507
tp508
Rp509
ag45
(g49
S'\xfb.\x10\xe2}31@'
p510
tp511
Rp512
ag45
(g49
S'\xcen\x06J\xfd*\x1b@'
p513
tp514
Rp515
ag45
(g49
S'\xbe`\\\x81:\x04(@'
p516
tp517
Rp518
ag45
(g49
S'h\xeeZ\xf5\xfc;#@'
p519
tp520
Rp521
ag45
(g49
S'\x8d\xd8\x14A\xb4\xe4\xf0?'
p522
tp523
Rp524
ag45
(g49
S'\xce\xc2\x98s\xc1"\x18@'
p525
tp526
Rp527
ag45
(g49
S'\x10>h{5\xc6.@'
p528
tp529
Rp530
ag45
(g49
S'\xffKZ\x95\x08q0@'
p531
tp532
Rp533
ag45
(g49
S'\x16\xd6\x9f?\x8d\xa7.@'
p534
tp535
Rp536
ag45
(g49
S'\x9f\xd7B\xf4Q\xa0(@'
p537
tp538
Rp539
asI8
(lp540
g45
(g49
S'\xdd\xc9);f\xf03@'
p541
tp542
Rp543
ag45
(g49
S'\x18\xf4\x9c\xc9\x87\x06;@'
p544
tp545
Rp546
ag45
(g49
S'\\\xdc\xc0\xf25\x127@'
p547
tp548
Rp549
ag45
(g49
S'\xc8dh\x9d\x0e\n?@'
p550
tp551
Rp552
ag45
(g49
S'W\x02\x19\x85\t)<@'
p553
tp554
Rp555
ag45
(g49
S'p\xcf_\x19\xdd\xf4A@'
p556
tp557
Rp558
ag45
(g49
S'5\xe6E\xde\x8b\x8e6@'
p559
tp560
Rp561
ag45
(g49
S'C:\xf6\xder\xef:@'
p562
tp563
Rp564
ag45
(g49
S'w<\xa1h\xfa\xc4:@'
p565
tp566
Rp567
ag45
(g49
S'\x0eRq\xcc\xfd\xd1F@'
p568
tp569
Rp570
ag45
(g49
S'\xbe\x1c\x8d\xc2U\x80?@'
p571
tp572
Rp573
ag45
(g49
S'H\xc4\x17\xbf792@'
p574
tp575
Rp576
ag45
(g49
S'[o\x14n\x95\x8c8@'
p577
tp578
Rp579
ag45
(g49
S'\xf3\xc1\xfe\xb5\xf3\x05:@'
p580
tp581
Rp582
ag45
(g49
S'y\xf5\x86@\x1c\xe64@'
p583
tp584
Rp585
ag45
(g49
S'\xe5\xe1"I\x96h+@'
p586
tp587
Rp588
ag45
(g49
S')\xa7\xcb\xd6\xa5\x87?@'
p589
tp590
Rp591
ag45
(g49
S'\xd80C~B\x8e=@'
p592
tp593
Rp594
ag45
(g49
S'>\x81\x07\n\xff\xaa0@'
p595
tp596
Rp597
ag45
(g49
S'L\xa8\xc9\x84\x8b3@@'
p598
tp599
Rp600
asI75
(lp601
g45
(g49
S'\x8dw*\x8d\x88\x17|@'
p602
tp603
Rp604
ag45
(g49
S'\xfc\x89\x84\t(\x1b~@'
p605
tp606
Rp607
ag45
(g49
S'\x9e?)\xc3\x18>~@'
p608
tp609
Rp610
ag45
(g49
S'.a+\xb5\x8d\x96}@'
p611
tp612
Rp613
ag45
(g49
S'\xf6\xfe\xab\xb7&\xc0{@'
p614
tp615
Rp616
ag45
(g49
S'\x10\x89E?;v|@'
p617
tp618
Rp619
ag45
(g49
S'\x1f\xbf\xcb<7Q\x7f@'
p620
tp621
Rp622
ag45
(g49
S'\xad\x9e\xec\xc9\x9bi{@'
p623
tp624
Rp625
ag45
(g49
S'D\x02m\xf3\xd7\xf5\x80@'
p626
tp627
Rp628
ag45
(g49
S'{O4Q\x08w~@'
p629
tp630
Rp631
ag45
(g49
S'\x8fJ\xd0\xb7\xc3\xfc}@'
p632
tp633
Rp634
ag45
(g49
S'm\x94\xb1ZLd~@'
p635
tp636
Rp637
ag45
(g49
S'\xd8\xe0\xcf\x95qv~@'
p638
tp639
Rp640
ag45
(g49
S'\xac\x90\xf0\x16)\x8f\x7f@'
p641
tp642
Rp643
ag45
(g49
S'G\xc2\xaf\xe9i\xca~@'
p644
tp645
Rp646
ag45
(g49
S'~\xe6>\x00\x1c\xed~@'
p647
tp648
Rp649
ag45
(g49
S'\x15JP\x9a\xdb\x00|@'
p650
tp651
Rp652
ag45
(g49
S'*\xfc\x14$\xeeF\x80@'
p653
tp654
Rp655
ag45
(g49
S'\xdc\xf3B\x8d,a{@'
p656
tp657
Rp658
ag45
(g49
S'\xfczL\xd9\xd1\x9c|@'
p659
tp660
Rp661
asI25
(lp662
g45
(g49
S'F\xda\xd5\x841m_@'
p663
tp664
Rp665
ag45
(g49
S'Gn\xb6a\x01(c@'
p666
tp667
Rp668
ag45
(g49
S'\x18OS\xdbpM\\@'
p669
tp670
Rp671
ag45
(g49
S'\xfa\x93\xa0AQ\x83]@'
p672
tp673
Rp674
ag45
(g49
S'\xa7\xfaF\x03\x05\xeac@'
p675
tp676
Rp677
ag45
(g49
S'\x8fOy\t\x1c\x9d]@'
p678
tp679
Rp680
ag45
(g49
S'\xa8)\xaa\xcd\xda\xf8[@'
p681
tp682
Rp683
ag45
(g49
S'a\x19\xc9\xfa\xf4\xc4[@'
p684
tp685
Rp686
ag45
(g49
S'A5\xe0\xbb\xb8\x02a@'
p687
tp688
Rp689
ag45
(g49
S'fX\xcd\xa3\xb6R`@'
p690
tp691
Rp692
ag45
(g49
S'\xf7\x0eJ\xd6\x03yY@'
p693
tp694
Rp695
ag45
(g49
S'\x93\xfaXbVWa@'
p696
tp697
Rp698
ag45
(g49
S'\xe6|f\xef\x87b[@'
p699
tp700
Rp701
ag45
(g49
S'\x85S\x05\xe2\xf8\x15^@'
p702
tp703
Rp704
ag45
(g49
S':RN\x85R\x83a@'
p705
tp706
Rp707
ag45
(g49
S'$\xc9;\xde2G\\@'
p708
tp709
Rp710
ag45
(g49
S'"(*\xe8o\x06_@'
p711
tp712
Rp713
ag45
(g49
S'\xbf\x9b&\x92`\xd8]@'
p714
tp715
Rp716
ag45
(g49
S'\x1ca\x02\xad\x00?]@'
p717
tp718
Rp719
ag45
(g49
S'9\x88b\xad\x84-`@'
p720
tp721
Rp722
asI250
(lp723
g45
(g49
S'\xd2V{p\xa9\xc4\x9b@'
p724
tp725
Rp726
ag45
(g49
S'B\tk\xf80\xe5\x9c@'
p727
tp728
Rp729
ag45
(g49
S'\xf6\x9f\x98\xc2\xb0\r\x9a@'
p730
tp731
Rp732
ag45
(g49
S'\xdb\xebF\xa3=\xa1\x9b@'
p733
tp734
Rp735
ag45
(g49
S'D\xeaV"\x92\xfc\x9c@'
p736
tp737
Rp738
ag45
(g49
S'\t\xc1\n\xffb\xd7\x9a@'
p739
tp740
Rp741
ag45
(g49
S'R\xb5\x82\xd13\xe5\x9b@'
p742
tp743
Rp744
ag45
(g49
S'\x85V\xaf\xbd\xed\xbe\x9c@'
p745
tp746
Rp747
ag45
(g49
S'w\xe8"F4\x0f\x9d@'
p748
tp749
Rp750
ag45
(g49
S'<\xe5\x18\x9e\xf1\x00\x9b@'
p751
tp752
Rp753
ag45
(g49
S'V\xb0\x9ct^\x1e\x9c@'
p754
tp755
Rp756
ag45
(g49
S'\xfd\x0b\x89\xbe\x9a~\x9d@'
p757
tp758
Rp759
ag45
(g49
S'\xc0Ju\xb1\x9e\xfe\x9b@'
p760
tp761
Rp762
ag45
(g49
S'\xb3\rG\xe5O\xef\x9b@'
p763
tp764
Rp765
ag45
(g49
S"\xcf'\xb3\x80\xe1\x1e\x9c@"
p766
tp767
Rp768
ag45
(g49
S'\xd8\xe1T\\\xc3\xbd\x9c@'
p769
tp770
Rp771
ag45
(g49
S'B\xc2\x8dI $\x99@'
p772
tp773
Rp774
ag45
(g49
S'\t\x0b\xc3\xae\x14\x9f\x9a@'
p775
tp776
Rp777
ag45
(g49
S'sF4\x11\xdcG\x9c@'
p778
tp779
Rp780
ag45
(g49
S'GU\xe2\x14\xf0\x0f\x9b@'
p781
tp782
Rp783
assg14
(dp784
I2
(lp785
g45
(g49
S'\xbbW\x17v\xc1\x1c\x1fA'
p786
tp787
Rp788
ag45
(g49
S'\xc9D\xea\xf4\xd5#\x1fA'
p789
tp790
Rp791
ag45
(g49
S'\x0f\x915\x0f\x02C\x1fA'
p792
tp793
Rp794
ag45
(g49
S'vB\xb3\x9d[3\x1fA'
p795
tp796
Rp797
ag45
(g49
S'\xe8\t\x0f.\xcbJ\x1dA'
p798
tp799
Rp800
ag45
(g49
S'\xa3\xc1\x92\xb4\xf5\x14\x1fA'
p801
tp802
Rp803
ag45
(g49
S'N\xc4\xdc\x8d\x8f\xda\x1eA'
p804
tp805
Rp806
ag45
(g49
S'e\xf3\xce\xa5g\xd0\x1eA'
p807
tp808
Rp809
ag45
(g49
S'\xb0\x11Ao\x86 \x1fA'
p810
tp811
Rp812
ag45
(g49
S'\xaeXr3\x86\xa8\x1dA'
p813
tp814
Rp815
ag45
(g49
S"'\x08\xdb\xb4\tu\x1fA"
p816
tp817
Rp818
ag45
(g49
S'\x95j\xc6\xe7\xa6\x1b\x1fA'
p819
tp820
Rp821
ag45
(g49
S":$\xe7'\xd67\x1fA"
p822
tp823
Rp824
ag45
(g49
S'g:\xab\xc6u\x80\x1eA'
p825
tp826
Rp827
ag45
(g49
S'\xc3\\_\xfa\x9d\x88\x1fA'
p828
tp829
Rp830
ag45
(g49
S'\x8d\\2\xd2\x9e<\x1fA'
p831
tp832
Rp833
ag45
(g49
S'\xa93@\x13\x916\x1fA'
p834
tp835
Rp836
ag45
(g49
S'\x9b\xe7\xd4h^g\x1fA'
p837
tp838
Rp839
ag45
(g49
S'\x84yB\xadjP\x1fA'
p840
tp841
Rp842
ag45
(g49
S'\x83vN\x99\xc0m\x1fA'
p843
tp844
Rp845
asI5
(lp846
g45
(g49
S'\xde\xc5L\xd7ec\x1fA'
p847
tp848
Rp849
ag45
(g49
S'\xfc\x88\xad\x84\xbd\xd9\x1cA'
p850
tp851
Rp852
ag45
(g49
S'\xf4\xc6\x0e\xdd\x85\x06\x1fA'
p853
tp854
Rp855
ag45
(g49
S'F\xb9\xf5\xc2\xe4b\x1fA'
p856
tp857
Rp858
ag45
(g49
S'\xcf\xde.Y\xa3\xd8\x1eA'
p859
tp860
Rp861
ag45
(g49
S'\xb4\xe9\x14d\x7f\xef\x1fA'
p862
tp863
Rp864
ag45
(g49
S'\x89\x81\xaa\x1clD\x1fA'
p865
tp866
Rp867
ag45
(g49
S'?\xc2\xc1<\xc5\xc2\x1eA'
p868
tp869
Rp870
ag45
(g49
S'\x03f4<\x01+\x1fA'
p871
tp872
Rp873
ag45
(g49
S'\x16\xd1\x9aO\x12\x0e\x1fA'
p874
tp875
Rp876
ag45
(g49
S'\xe1\x89\x8c\xab\x02\xf7\x1eA'
p877
tp878
Rp879
ag45
(g49
S'\xaa\xb2\x9f\xe0\xf5\xd3\x1eA'
p880
tp881
Rp882
ag45
(g49
S'\x10\xfc\x93C\xba\xec\x1eA'
p883
tp884
Rp885
ag45
(g49
S'I\xcfT\xfb1\xb8\x1fA'
p886
tp887
Rp888
ag45
(g49
S'm\x93e\xd5h\x9f\x1eA'
p889
tp890
Rp891
ag45
(g49
S'\x87o:@]\xa6\x1eA'
p892
tp893
Rp894
ag45
(g49
S'\xa8!ND\x82\xee\x1eA'
p895
tp896
Rp897
ag45
(g49
S'\xa0\x1b\x9c\xf6[7\x1fA'
p898
tp899
Rp900
ag45
(g49
S'gg\xd6\xd8$\xea\x1dA'
p901
tp902
Rp903
ag45
(g49
S'%\xc7\xc0_vi\x1fA'
p904
tp905
Rp906
asI8
(lp907
g45
(g49
S'\xabF\x05w\xf2\x8d\x1dA'
p908
tp909
Rp910
ag45
(g49
S"x'-\x17x\xd4\x1eA"
p911
tp912
Rp913
ag45
(g49
S'\xfe\xe1\xff\x99u\x95\x1eA'
p914
tp915
Rp916
ag45
(g49
S'}\x99v\t\xcc\x08\x1eA'
p917
tp918
Rp919
ag45
(g49
S'V`1\xd5\xd7\x03\x1fA'
p920
tp921
Rp922
ag45
(g49
S'\xe4x\xb2\xa27J\x1fA'
p923
tp924
Rp925
ag45
(g49
S'\xe2\nL\x1e\x022\x1fA'
p926
tp927
Rp928
ag45
(g49
S'\xbax&\x92k{\x1fA'
p929
tp930
Rp931
ag45
(g49
S'\x94&`\xcb\xb7\xbe\x1eA'
p932
tp933
Rp934
ag45
(g49
S'\xb0bG\xf3\xb7\x99\x1fA'
p935
tp936
Rp937
ag45
(g49
S'\xb5&^X\xc3j\x1fA'
p938
tp939
Rp940
ag45
(g49
S'\xe4,\x00x\xa8\x05\x1eA'
p941
tp942
Rp943
ag45
(g49
S'I\x90R\x04\x17\xf4\x1eA'
p944
tp945
Rp946
ag45
(g49
S'\xd0\xb4\xe4\xa8vj\x1fA'
p947
tp948
Rp949
ag45
(g49
S'\xe1V\xf4\x7f1\x8a\x1fA'
p950
tp951
Rp952
ag45
(g49
S'\x056\xa6\x0c\xc3m\x1eA'
p953
tp954
Rp955
ag45
(g49
S'@\x8d(4o\xb5\x1fA'
p956
tp957
Rp958
ag45
(g49
S'\xc5\xc7i"*\x86\x1fA'
p959
tp960
Rp961
ag45
(g49
S'\xaa\xbd>\xc1w\xa8\x1eA'
p962
tp963
Rp964
ag45
(g49
S'}"(\xf4\xbc\xc4\x1fA'
p965
tp966
Rp967
asI75
(lp968
g45
(g49
S'z}\xe6\xab_\xb4\x1eA'
p969
tp970
Rp971
ag45
(g49
S'\xb1\xb0\xef\x16wm\x1eA'
p972
tp973
Rp974
ag45
(g49
S'\x9b\x03\xc8\x92\xe6\x83\x1fA'
p975
tp976
Rp977
ag45
(g49
S'\x8b\xf4\xfc#@\xd2\x1eA'
p978
tp979
Rp980
ag45
(g49
S'\xef\x1f2\x1a\xc8a\x1fA'
p981
tp982
Rp983
ag45
(g49
S'\xcb2&"W\x1e\x1eA'
p984
tp985
Rp986
ag45
(g49
S'\xe3\xe0X0=\x82\x1fA'
p987
tp988
Rp989
ag45
(g49
S'\x9co\xd6\x19\xf5|\x1fA'
p990
tp991
Rp992
ag45
(g49
S'\xf7\xe4\xf6\xa3$\xd9\x1eA'
p993
tp994
Rp995
ag45
(g49
S'\xa2\xcfl\xe0\xf5\x14\x1fA'
p996
tp997
Rp998
ag45
(g49
S'\xdb&\x8cR \xb2\x1eA'
p999
tp1000
Rp1001
ag45
(g49
S'\x8e\xfef\xe3\xfc{\x1eA'
p1002
tp1003
Rp1004
ag45
(g49
S"\x07\xdd'P\xce\x85\x1fA"
p1005
tp1006
Rp1007
ag45
(g49
S'\xab\xca\xf4\xfe\xfc\xbd\x1eA'
p1008
tp1009
Rp1010
ag45
(g49
S'\x81\x0c\x1e\xe3\xd8\x1c\x1fA'
p1011
tp1012
Rp1013
ag45
(g49
S'\x0cH\xa8P\x9ai\x1eA'
p1014
tp1015
Rp1016
ag45
(g49
S'N\x9f\x0b\xaa\xefh\x1fA'
p1017
tp1018
Rp1019
ag45
(g49
S'\xf6^\xda\xcc\x06\xb9\x1eA'
p1020
tp1021
Rp1022
ag45
(g49
S'1=}Q$\x95\x1eA'
p1023
tp1024
Rp1025
ag45
(g49
S'r\xecv\xdb(#\x1fA'
p1026
tp1027
Rp1028
asI25
(lp1029
g45
(g49
S'n\x86\x88.\x10\x12\x1fA'
p1030
tp1031
Rp1032
ag45
(g49
S'\xfdT\x1dp,l\x1fA'
p1033
tp1034
Rp1035
ag45
(g49
S'F\xf6,\x17\x8e_\x1eA'
p1036
tp1037
Rp1038
ag45
(g49
S'\xbf\xa4\xb3\xdd\xdd/\x1fA'
p1039
tp1040
Rp1041
ag45
(g49
S'\x03\xb6\xcaK\x1b\xe5\x1eA'
p1042
tp1043
Rp1044
ag45
(g49
S'p\x11\x0b\xb0\x1c\x98\x1fA'
p1045
tp1046
Rp1047
ag45
(g49
S'\x1c\xf2j\xbc,\xe9\x1eA'
p1048
tp1049
Rp1050
ag45
(g49
S'\x95\xd4\xc8\xd8}\xd9\x1eA'
p1051
tp1052
Rp1053
ag45
(g49
S'\x93tY\xdc\xb41\x1eA'
p1054
tp1055
Rp1056
ag45
(g49
S'B\x00<\x01*W\x1fA'
p1057
tp1058
Rp1059
ag45
(g49
S'P\xa7\xb2\x08\xa6{\x1fA'
p1060
tp1061
Rp1062
ag45
(g49
S'\xa7\x89<L<\xea\x1eA'
p1063
tp1064
Rp1065
ag45
(g49
S'3\xd4\x89p\xdav\x1eA'
p1066
tp1067
Rp1068
ag45
(g49
S'\x9f8R\x1e\x07\xb8\x1eA'
p1069
tp1070
Rp1071
ag45
(g49
S'(\xc6\xd5\xfaRB\x1eA'
p1072
tp1073
Rp1074
ag45
(g49
S'\x14k\x1e\xac\x81\xb5\x1dA'
p1075
tp1076
Rp1077
ag45
(g49
S'U\x9dJ\xb3a\x03\x1fA'
p1078
tp1079
Rp1080
ag45
(g49
S'\xc9\x0fY\xa5\xb6x\x1fA'
p1081
tp1082
Rp1083
ag45
(g49
S'p#\x01\x01\xc8e\x1eA'
p1084
tp1085
Rp1086
ag45
(g49
S'&\xb9}l;\x86\x1fA'
p1087
tp1088
Rp1089
asI250
(lp1090
g45
(g49
S'\x06\xa9~\xa7\xed=\x1eA'
p1091
tp1092
Rp1093
ag45
(g49
S'm\xe5\x89(C\xc0\x1eA'
p1094
tp1095
Rp1096
ag45
(g49
S'F\xba\xbc4>W\x1fA'
p1097
tp1098
Rp1099
ag45
(g49
S'\xea\x0c\xd5=\xa3\x95\x1fA'
p1100
tp1101
Rp1102
ag45
(g49
S'\xd4\x05\xcf\xc3\xb6z\x1fA'
p1103
tp1104
Rp1105
ag45
(g49
S'u\xe6\xb43\xd65\x1fA'
p1106
tp1107
Rp1108
ag45
(g49
S'J\xad\xdf\xd3\xea%\x1fA'
p1109
tp1110
Rp1111
ag45
(g49
S'gI\x91Y\xe2\x07\x1fA'
p1112
tp1113
Rp1114
ag45
(g49
S'\xc2\xef\x86\x17f\x08\x1fA'
p1115
tp1116
Rp1117
ag45
(g49
S'K\xe3\xb53,?\x1fA'
p1118
tp1119
Rp1120
ag45
(g49
S'\xea)F@\xa5\xdf\x1eA'
p1121
tp1122
Rp1123
ag45
(g49
S'\xba\x95\x96\xb0!J\x1fA'
p1124
tp1125
Rp1126
ag45
(g49
S'_\x07>lU\xba\x1eA'
p1127
tp1128
Rp1129
ag45
(g49
S'\xc5:\x97\x84\x8c\x91\x1fA'
p1130
tp1131
Rp1132
ag45
(g49
S'\xab\n\xba\x12\xd21\x1fA'
p1133
tp1134
Rp1135
ag45
(g49
S'\xb0\xf9\xc1\x07\x94\x84\x1fA'
p1136
tp1137
Rp1138
ag45
(g49
S'!\xd89\x84\xe6\x01 A'
p1139
tp1140
Rp1141
ag45
(g49
S'\x06p\x89\x95 b\x1eA'
p1142
tp1143
Rp1144
ag45
(g49
S'I\x1e];\x81\x84\x1eA'
p1145
tp1146
Rp1147
ag45
(g49
S'*\x9c\xf3\xc0N,\x1fA'
p1148
tp1149
Rp1150
asssI2
(dp1151
g13
(dp1152
I2
(lp1153
F1762.128048385419
aF4.538058683047136
aF129.9912561464985
aF447.1857451029259
aF2751.5973137535157
aF300.19383316580326
aF393.9172694962833
aF2107.309078328808
aF435.69432766305647
aF1134.6891645700566
aF73.5871324258315
aF770.5429169447697
aF67.89004918440456
aF79.98396315559873
aF744.7871927098986
aF12.887580910985267
aF262.7886877028678
aF318.71507211443526
aF634.0488346799685
aF1538.2976420091095
asI5
(lp1154
F2988.438314042575
aF22876.508647038434
aF2429.4389286055275
aF8868.81380246055
aF29243.162660291193
aF7177.492420176704
aF1585.9438898138574
aF13716.048256643897
aF21037.11771233881
aF10522.183459198386
aF10022.900024469685
aF19230.952240135008
aF11398.051671742385
aF7049.838608577975
aF8169.942389654218
aF15213.729240182654
aF30089.824775407174
aF12189.519310880492
aF4583.4695198982345
aF21666.11775057338
asI8
(lp1155
F187379.98420501704
aF69195.35871366186
aF188828.09289320317
aF179838.9943129044
aF167761.91775742953
aF222344.09469297488
aF156556.17557235854
aF235730.53145281086
aF153561.6242659093
aF126548.20661841279
aF145312.40432033292
aF204539.72539904443
aF143760.96261916112
aF211863.46703109302
aF91393.94588645911
aF135291.4960171264
aF157146.63634246663
aF132431.639164576
aF95799.04030184823
aF116493.71096457887
asI75
(lp1156
F21322406.028413165
aF21735521.746675514
aF21855434.974683862
aF19478658.3520088
aF22290793.140006874
aF19516678.77450355
aF23056771.874930877
aF20833950.92183132
aF17750427.799921047
aF20118281.112381957
aF23042664.10364538
aF19760865.70476368
aF21541754.6441652
aF22450857.273285724
aF22182560.157340307
aF22819985.99990595
aF20268308.68084878
aF22462853.560712676
aF22108413.572554808
aF21260790.4754163
asI25
(lp1157
F2429908.3741977434
aF2301584.1747488007
aF2269684.2776446175
aF1861059.4597774358
aF2308838.5124805425
aF2014309.0141726173
aF2659771.26611799
aF2250419.0000039153
aF1559710.2609356616
aF2067059.8616629823
aF1358927.649353124
aF2544035.389586056
aF1718042.9110590576
aF2251065.198072363
aF1740528.7124051205
aF2049859.1595641694
aF2499632.012329043
aF2469946.1719690207
aF1816793.7579281174
aF1545355.627266274
asI250
(lp1158
F384835955.8295431
aF385247222.555974
aF336993170.16094035
aF339206578.62494963
aF385112108.9624888
aF361111173.7578851
aF369526401.422996
aF378001542.7453394
aF391255307.59279996
aF361911192.1094643
aF338221311.24082303
aF341074845.86168253
aF373116119.74622804
aF369308027.84834665
aF363511882.38175356
aF364916335.1900221
aF343335833.55301684
aF318638494.64541537
aF394281623.15275776
aF377615213.77131915
assg15
(dp1159
I2
(lp1160
F16.826101966885744
aF0.6598291103158431
aF1.8482253097552688
aF4.313660681222266
aF5.0004494195772455
aF2.892909776020021
aF4.413229639510034
aF7.205633345312518
aF5.957823184775409
aF5.183420826360481
aF5.785993814517667
aF0.9825691934824005
aF9.993307423092752
aF0.05679455180459777
aF3.4663472544497873
aF4.853516842929055
aF5.801329916690252
aF1.2793323037366533
aF8.669110043206315
aF0.27685060617886037
asI5
(lp1161
F1179.1581923330812
aF1180.5520525191703
aF657.5979940324643
aF794.1999312637038
aF2374.980940957487
aF1191.1857843973262
aF1133.4492488448168
aF793.8713667641352
aF786.1772989464505
aF1941.538068672529
aF1233.394334697234
aF382.3782648711583
aF1708.0363894162504
aF1387.6656665847268
aF949.2648199578459
aF1230.7373448922885
aF1403.6664413549101
aF1276.2172782280338
aF1172.683133187547
aF1082.527343084744
asI8
(lp1162
F62935.459614047606
aF70080.27872877616
aF73154.08207249433
aF57307.20108126936
aF61765.65521070312
aF61305.256323529735
aF55313.04919346055
aF76327.29724675616
aF75157.12202257437
aF59824.59721532324
aF44951.349384099514
aF55457.105616099434
aF56617.39050712128
aF60444.77805972225
aF62373.62212436823
aF52925.155204380666
aF56608.73235819186
aF44557.86273423365
aF54069.79248614005
aF52850.49329650171
asI75
(lp1163
F16131960.05346784
aF15374270.843706844
aF16917002.923740417
aF15167237.69141207
aF17391115.17758013
aF15247888.408948425
aF15891745.005390288
aF14511346.330505997
aF16280731.397523278
aF16555397.406505235
aF16849315.814334925
aF14087206.701500284
aF16983782.243003383
aF16678956.828138214
aF15810478.482492736
aF16911325.843991403
aF14994823.504039314
aF15542198.278966932
aF15977936.444669578
aF16366851.096308328
asI25
(lp1164
F1210039.33670029
aF1165836.4663384326
aF1002260.1108127552
aF1027399.9179096882
aF810017.1266627009
aF1214567.518597808
aF1156286.746679118
aF949077.6496208088
aF1117401.3336213722
aF1190213.5958671707
aF1068213.8474594078
aF1028234.7314883427
aF1044448.9155083238
aF1108702.1896173463
aF853684.5569413056
aF1056049.5338991606
aF1278675.8011950986
aF1185721.2818042818
aF882705.4891056425
aF917692.437517781
asI250
(lp1165
F334719260.0956716
aF321431385.37947804
aF315217172.27936983
aF327049765.48992634
aF328510843.5684378
aF324916011.97996074
aF325827358.89062023
aF326394862.2755637
aF312541618.9204209
aF323213339.94344866
aF306827137.9374503
aF315149792.9205116
aF321076290.6756979
aF315794867.6538315
aF301429400.0473401
aF316928501.2441246
aF312688338.1449462
aF309317540.3818905
aF321024948.3834375
aF306848816.27485204
assg14
(dp1166
I2
(lp1167
F8971.389113953797
aF8656.56863860768
aF8650.371401099892
aF8958.656388184667
aF8645.6947106225
aF8633.040139629229
aF9016.912615749692
aF8812.257152909835
aF8841.622997063449
aF8741.301686939481
aF8870.573995951503
aF8866.294032179314
aF8850.314299997295
aF8542.294380242107
aF8429.2307899476
aF8909.748276293865
aF9110.736948950078
aF8336.865977025505
aF8633.804937020182
aF8553.248502632017
asI5
(lp1168
F76116.14183558576
aF77457.51067940924
aF76213.5589264395
aF76875.24507544971
aF78063.03131638221
aF77654.29799495844
aF76751.63642029316
aF76584.89208345156
aF76553.46022146627
aF77095.25034199914
aF75152.88718231239
aF76345.01638699803
aF75892.20193427852
aF77122.40290757833
aF77489.20323201716
aF74944.95674313151
aF78592.60537088274
aF77249.02676011964
aF76984.3699778496
aF77669.66747768065
asI8
(lp1169
F371593.53764619277
aF365183.32367944496
aF371592.18039195274
aF371471.60727514315
aF369816.0202107161
aF371214.48892933776
aF371617.65137293003
aF363882.3022982127
aF370145.46647988475
aF371849.99817344814
aF367507.94721585757
aF366618.6667104261
aF366395.7562281644
aF369185.8496431587
aF369144.94297001656
aF369105.34186018526
aF366098.8123425964
aF371116.0507156246
aF362325.8546254245
aF365005.1444449496
asI75
(lp1170
F24150850.10121201
aF24270492.662207764
aF24164866.687720332
aF24173507.07489639
aF24056383.52285044
aF24151068.295325827
aF24098552.07951255
aF24222975.25763121
aF24034533.112425476
aF24210436.172716524
aF24267574.88115893
aF24108185.775008053
aF24203322.58871659
aF24249265.161042538
aF23952058.761632904
aF24143275.73232126
aF24139322.769710448
aF24148589.28736249
aF24192189.853210058
aF24198885.934818912
asI25
(lp1171
F3312263.4473357056
aF3307050.517045465
aF3292519.4746579565
aF3298569.105838958
aF3269548.2134618172
aF3293241.3436737414
aF3270842.573119327
aF3291003.697938652
aF3303477.596857912
aF3316640.191587487
aF3307228.6434173225
aF3316940.736644465
aF3315894.879525018
aF3303262.3223026013
aF3289025.7561923163
aF3305185.72896525
aF3299655.2994845575
aF3316011.303185944
aF3306914.781034057
aF3288143.7806896036
asI250
(lp1172
F438099755.61556673
aF440373462.85210145
aF440515484.47893065
aF440561932.2110883
aF440470981.15965545
aF440880802.4817655
aF440232236.70947236
aF440790958.77048695
aF439569537.9826354
aF439335584.1073708
aF439562471.1672156
aF440614637.51509446
aF440010895.1230236
aF440288370.66853625
aF440802399.38242924
aF438937055.15751517
aF438748513.1175993
aF440098341.72648555
aF439955713.95608836
aF439873669.25638837
asssI6
(dp1173
g13
(dp1174
I2
(lp1175
g45
(g49
S'\x89#;Jy\xf5\xe2?'
p1176
tp1177
Rp1178
ag45
(g49
S'\xd0\x04\xf5/\xcfY\xb1?'
p1179
tp1180
Rp1181
ag45
(g49
S'\xc5\xd4\xff\x8f\x17\xe7}?'
p1182
tp1183
Rp1184
ag45
(g49
S'Q\xf85\x1f\x97\xf5\xb5?'
p1185
tp1186
Rp1187
ag45
(g49
S"\xa0|\xe3\x86'[\xc7?"
p1188
tp1189
Rp1190
ag45
(g49
S'G)\xcb!\x81Y\xba?'
p1191
tp1192
Rp1193
ag45
(g49
S'\xff/\xd7\xacC:\xb6?'
p1194
tp1195
Rp1196
ag45
(g49
S'r\xdb\xcc\x1cR\x97\xaf?'
p1197
tp1198
Rp1199
ag45
(g49
S"\x81'\xe8\xd3\xb3s\xbb?"
p1200
tp1201
Rp1202
ag45
(g49
S'\x8f\xc7#~\x1a^\xc1?'
p1203
tp1204
Rp1205
ag45
(g49
S' \x18\xbc\xf1d,_?'
p1206
tp1207
Rp1208
ag45
(g49
S'\x880\xad8\xfc\xe6\xd5?'
p1209
tp1210
Rp1211
ag45
(g49
S'\xf4\x8e\xf6\xf0\xe2\xde\xc3?'
p1212
tp1213
Rp1214
ag45
(g49
S'd\x9f]\x00\xe4n\x8a?'
p1215
tp1216
Rp1217
ag45
(g49
S'\xf9\xbc\xc4\xbaqn9?'
p1218
tp1219
Rp1220
ag45
(g49
S'\xca1\x10\xdf\x1a\x0f\xd6?'
p1221
tp1222
Rp1223
ag45
(g49
S'\xa7 \xd1\xcb\xddc\xcb?'
p1224
tp1225
Rp1226
ag45
(g49
S'^\x98\xd6\xbc\xbeI\xd9?'
p1227
tp1228
Rp1229
ag45
(g49
S'H\xe4\x94\xbf\xff\xbd\xc4?'
p1230
tp1231
Rp1232
ag45
(g49
S'EV/\x85f\xce\xe2?'
p1233
tp1234
Rp1235
asI5
(lp1236
g45
(g49
S'\x98\x98m4A\xc8\x0f@'
p1237
tp1238
Rp1239
ag45
(g49
S'\x1aG\xc1\x11\x14\xbb\x0f@'
p1240
tp1241
Rp1242
ag45
(g49
S'&\xe91u\x04v\x0f@'
p1243
tp1244
Rp1245
ag45
(g49
S't\xae=\x96\xe9\x9c\x0f@'
p1246
tp1247
Rp1248
ag45
(g49
S'9\x85\xd8\xfd\xc5a\x0e@'
p1249
tp1250
Rp1251
ag45
(g49
S'\x1cg\xa0(\x89\xaa\x0f@'
p1252
tp1253
Rp1254
ag45
(g49
S'\x8a\xbd\xeaK\x1a\x98\r@'
p1255
tp1256
Rp1257
ag45
(g49
S'f`\xe5/\xcbn\x0f@'
p1258
tp1259
Rp1260
ag45
(g49
S'\x90i\x91\xba\xde\xaa\x0f@'
p1261
tp1262
Rp1263
ag45
(g49
S'\xe47\x1f\x01\x81V\x0f@'
p1264
tp1265
Rp1266
ag45
(g49
S'\xeeM\x17\xe9\xeb\xd2\x0f@'
p1267
tp1268
Rp1269
ag45
(g49
S'\x8f!-\xc5H\x86\x0f@'
p1270
tp1271
Rp1272
ag45
(g49
S'\xc1\xb9_\x88\xf6\xac\x0f@'
p1273
tp1274
Rp1275
ag45
(g49
S'\xfcD\xfa\xc2\xdc\x1b\x0f@'
p1276
tp1277
Rp1278
ag45
(g49
S'\xa4\x04\x1d:(\xa1\x0f@'
p1279
tp1280
Rp1281
ag45
(g49
S'\xa2\xbf\xf6\xa4\x90z\x0f@'
p1282
tp1283
Rp1284
ag45
(g49
S'\xc3\xd3\xea`\xb5\xd0\x0f@'
p1285
tp1286
Rp1287
ag45
(g49
S'\xe0\xd1q\xbe\x04\xaa\x0f@'
p1288
tp1289
Rp1290
ag45
(g49
S'J\xe8Y\x080\xc5\x0f@'
p1291
tp1292
Rp1293
ag45
(g49
S'\xea.\x107\xd6\xf5\x0e@'
p1294
tp1295
Rp1296
asI8
(lp1297
g45
(g49
S'\xbbg\xcf\x16f\xd9\x1b@'
p1298
tp1299
Rp1300
ag45
(g49
S'\xb0\xcd\xa7o\xf7\xf0\x1b@'
p1301
tp1302
Rp1303
ag45
(g49
S',v\x15\x86E\xe4\x1b@'
p1304
tp1305
Rp1306
ag45
(g49
S'^y\xfd8\x9f\xd9\x1b@'
p1307
tp1308
Rp1309
ag45
(g49
S'L\xe0\xdbP\xd4\xe7\x1b@'
p1310
tp1311
Rp1312
ag45
(g49
S'\xa6\xeb\xcf\xf4N\xd9\x1b@'
p1313
tp1314
Rp1315
ag45
(g49
S'\xba\xd6\xe9<\xbb\xda\x1b@'
p1316
tp1317
Rp1318
ag45
(g49
S'Mr\xe7,E\xe4\x1b@'
p1319
tp1320
Rp1321
ag45
(g49
S'\x9b\xa5}\x98\x9d\xdf\x1b@'
p1322
tp1323
Rp1324
ag45
(g49
S'm\xcd\x94\xe7T\xe8\x1b@'
p1325
tp1326
Rp1327
ag45
(g49
S"Tg'\xdd1\xde\x1b@"
p1328
tp1329
Rp1330
ag45
(g49
S'\x8a\xcd\x7f\xbc\x04\xd0\x1b@'
p1331
tp1332
Rp1333
ag45
(g49
S'\x9fG\x12>\x1a\xb7\x1b@'
p1334
tp1335
Rp1336
ag45
(g49
S'[\x98\xa9\x01\xed\xcf\x1b@'
p1337
tp1338
Rp1339
ag45
(g49
S'\xa3:\x83,\xce\xc9\x1b@'
p1340
tp1341
Rp1342
ag45
(g49
S'\xf7\xc9\x87\xd21\xe6\x1b@'
p1343
tp1344
Rp1345
ag45
(g49
S'}\xa7.\xfe\x92\xea\x1b@'
p1346
tp1347
Rp1348
ag45
(g49
S'\xe4\x07R\xd83\xd7\x1b@'
p1349
tp1350
Rp1351
ag45
(g49
S'jt\r,\xb0\xc5\x1b@'
p1352
tp1353
Rp1354
ag45
(g49
S'\xefJ\xc1=:\xdf\x1b@'
p1355
tp1356
Rp1357
asI75
(lp1358
g45
(g49
S'=e\x10\xb2\xf4{R@'
p1359
tp1360
Rp1361
ag45
(g49
S'\xb9\xa8\xca\r\xb1~R@'
p1362
tp1363
Rp1364
ag45
(g49
S'\xeaho3i}R@'
p1365
tp1366
Rp1367
ag45
(g49
S'2\x88\xac@\xc5|R@'
p1368
tp1369
Rp1370
ag45
(g49
S'\xa1FpG\xb5~R@'
p1371
tp1372
Rp1373
ag45
(g49
S'H\xb8\xcb\x8f\x89}R@'
p1374
tp1375
Rp1376
ag45
(g49
S'{>\x92\x91\x90|R@'
p1377
tp1378
Rp1379
ag45
(g49
S'\x16 a\xdb\x18}R@'
p1380
tp1381
Rp1382
ag45
(g49
S'"\xba\xca\x8a\x9b}R@'
p1383
tp1384
Rp1385
ag45
(g49
S'a@\xe1\xd2\xb0~R@'
p1386
tp1387
Rp1388
ag45
(g49
S's\xeev)\xb5}R@'
p1389
tp1390
Rp1391
ag45
(g49
S'\xaaD\x93/\xd0|R@'
p1392
tp1393
Rp1394
ag45
(g49
S'\xd9\xa3\xda/,~R@'
p1395
tp1396
Rp1397
ag45
(g49
S'\xa1\x85\xdfq\xe6~R@'
p1398
tp1399
Rp1400
ag45
(g49
S'\xec\xd4\x9f\xcd\x03~R@'
p1401
tp1402
Rp1403
ag45
(g49
S'8\xc9\x07\xd0.|R@'
p1404
tp1405
Rp1406
ag45
(g49
S'\x12\xc7l\x84\x82}R@'
p1407
tp1408
Rp1409
ag45
(g49
S'[\xae\xa0\xb8\xca}R@'
p1410
tp1411
Rp1412
ag45
(g49
S'b<J\x13\xd7{R@'
p1413
tp1414
Rp1415
ag45
(g49
S'"a\xd4\x1a_~R@'
p1416
tp1417
Rp1418
asI25
(lp1419
g45
(g49
S'|\xaaN\xc7\xc2\xf67@'
p1420
tp1421
Rp1422
ag45
(g49
S'/3\xdd\xf0\xf7\xf07@'
p1423
tp1424
Rp1425
ag45
(g49
S'\xeaq\x84\xc1\xde\xf97@'
p1426
tp1427
Rp1428
ag45
(g49
S'\xe8\x8bN!%\xf67@'
p1429
tp1430
Rp1431
ag45
(g49
S'\x86<\x06\x07@\xf97@'
p1432
tp1433
Rp1434
ag45
(g49
S'\x0c\xfe\x83\x8f\x00\xfa7@'
p1435
tp1436
Rp1437
ag45
(g49
S'i\xdc\xf35\x95\xf97@'
p1438
tp1439
Rp1440
ag45
(g49
S'-\xf1\x00\t\xa1\xfa7@'
p1441
tp1442
Rp1443
ag45
(g49
S'\xbcQ\x88\xd1K\xf37@'
p1444
tp1445
Rp1446
ag45
(g49
S'\x890\xf6\xdb{\xf97@'
p1447
tp1448
Rp1449
ag45
(g49
S'\xae\xb6h\xef&\xf67@'
p1450
tp1451
Rp1452
ag45
(g49
S'd\x08Vf\xd1\xf67@'
p1453
tp1454
Rp1455
ag45
(g49
S'YP\x99<\xdd\xfb7@'
p1456
tp1457
Rp1458
ag45
(g49
S'\x98\xab\x06\x8c/\xf77@'
p1459
tp1460
Rp1461
ag45
(g49
S'U\x03\x01\xcb\x85\xfb7@'
p1462
tp1463
Rp1464
ag45
(g49
S'\x07O\xef\x86\x99\xf57@'
p1465
tp1466
Rp1467
ag45
(g49
S'\\\xe26\xa3E\xeb7@'
p1468
tp1469
Rp1470
ag45
(g49
S'\xc9\xbb\x9e\xbf"\xfb7@'
p1471
tp1472
Rp1473
ag45
(g49
S'm\xd8\x0cz\xf5\xf67@'
p1474
tp1475
Rp1476
ag45
(g49
S'\x9f\x0c+u\xc4\xf57@'
p1477
tp1478
Rp1479
asI250
(lp1480
g45
(g49
S'\x14\x8b<\x80\x9e\x1do@'
p1481
tp1482
Rp1483
ag45
(g49
S'\xd1\x08\xa5\xd6r\x1fo@'
p1484
tp1485
Rp1486
ag45
(g49
S's\xbeK\xedd\x1fo@'
p1487
tp1488
Rp1489
ag45
(g49
S'&\x85\xd2\xdf\xed\x1do@'
p1490
tp1491
Rp1492
ag45
(g49
S'\x0e\x1f_QX\x1do@'
p1493
tp1494
Rp1495
ag45
(g49
S'#\xc3]\xa81\x1eo@'
p1496
tp1497
Rp1498
ag45
(g49
S'\xfeo\xd7\xf0j\x1fo@'
p1499
tp1500
Rp1501
ag45
(g49
S'\\}D\x1f\n\x1fo@'
p1502
tp1503
Rp1504
ag45
(g49
S'\x01j\x9br\xfb\x1eo@'
p1505
tp1506
Rp1507
ag45
(g49
S'\xdex\x05\xd3&\x1fo@'
p1508
tp1509
Rp1510
ag45
(g49
S'9\x04\x9f&\xb4\x1eo@'
p1511
tp1512
Rp1513
ag45
(g49
S'\xd6(S\x02\x14\x1fo@'
p1514
tp1515
Rp1516
ag45
(g49
S'PA\xbeY(\x1fo@'
p1517
tp1518
Rp1519
ag45
(g49
S'\x89\xa4\xfb\x02W\x1fo@'
p1520
tp1521
Rp1522
ag45
(g49
S'\x83\x97\x8c\xcb\xd7\x1do@'
p1523
tp1524
Rp1525
ag45
(g49
S'B\t\xd1\xeaQ\x1eo@'
p1526
tp1527
Rp1528
ag45
(g49
S',LI\x82\x06\x1eo@'
p1529
tp1530
Rp1531
ag45
(g49
S'~\xb4<yE\x1fo@'
p1532
tp1533
Rp1534
ag45
(g49
S'\x08H\x02\xec\xf8\x1eo@'
p1535
tp1536
Rp1537
ag45
(g49
S'k\x0e\xa5<\xda\x1eo@'
p1538
tp1539
Rp1540
assg15
(dp1541
I2
(lp1542
g45
(g49
S'\xefJ\x8b\xa8\xdf@\x9d?'
p1543
tp1544
Rp1545
ag45
(g49
S"\xf7\xc7\x0cj\xa1'u?"
p1546
tp1547
Rp1548
ag45
(g49
S'\x13\xe6\x03\xfeg&\x84?'
p1549
tp1550
Rp1551
ag45
(g49
S'\xcaZ\x1dq\x80`\x83?'
p1552
tp1553
Rp1554
ag45
(g49
S'ck\x8e+\xb1>\x84?'
p1555
tp1556
Rp1557
ag45
(g49
S'\xc7\xef\xd1!\x05&\x92?'
p1558
tp1559
Rp1560
ag45
(g49
S'2$\x82\xc3G@z?'
p1561
tp1562
Rp1563
ag45
(g49
S'\x95\xc6*^\xb6\xe3\x82?'
p1564
tp1565
Rp1566
ag45
(g49
S'\xfc1\xe7\x1aG\x7f\x84?'
p1567
tp1568
Rp1569
ag45
(g49
S'\x0c\nZ!\xe4\xe7\x94?'
p1570
tp1571
Rp1572
ag45
(g49
S'\xfe\x15z\x7f \xf5b?'
p1573
tp1574
Rp1575
ag45
(g49
S'\x97\x889\xffq9}?'
p1576
tp1577
Rp1578
ag45
(g49
S'\xb8m\xf45\xac)y?'
p1579
tp1580
Rp1581
ag45
(g49
S'\xcc\xe2v\xf5\xc4\xdf\x90?'
p1582
tp1583
Rp1584
ag45
(g49
S'\xd2\xbc\xfa\x94_\x9aX?'
p1585
tp1586
Rp1587
ag45
(g49
S'\xe4\xe2\x0e\xa2\x97\xea\x95?'
p1588
tp1589
Rp1590
ag45
(g49
S'%\x04\r\xd9\x16\xab\x81?'
p1591
tp1592
Rp1593
ag45
(g49
S'\xb2\xb9Y\r\xe8T\xa8?'
p1594
tp1595
Rp1596
ag45
(g49
S'\xbd\xb9[\xd1\x1e\xc1\x88?'
p1597
tp1598
Rp1599
ag45
(g49
S'=f\xae\x12\x16\x80\x92?'
p1600
tp1601
Rp1602
asI5
(lp1603
g45
(g49
S'\xbe\xa8\x1a\xab\xe2\x86\r@'
p1604
tp1605
Rp1606
ag45
(g49
S'\xcch\xfe\xaa\xfb\xfa\x0e@'
p1607
tp1608
Rp1609
ag45
(g49
S'\x9c\tin\xb4\x08\r@'
p1610
tp1611
Rp1612
ag45
(g49
S'\xdb{\tH\x13\xe0\r@'
p1613
tp1614
Rp1615
ag45
(g49
S'\x1a]\x13\xf0\xdd\x13\x0e@'
p1616
tp1617
Rp1618
ag45
(g49
S'\xbcU\xd9\x9f]\x11\x0f@'
p1619
tp1620
Rp1621
ag45
(g49
S'\xdfi\x85U\x9cQ\n@'
p1622
tp1623
Rp1624
ag45
(g49
S'\xc4"\x13\r\x93\xcf\r@'
p1625
tp1626
Rp1627
ag45
(g49
S'p\x83@\x17\xa9\x87\r@'
p1628
tp1629
Rp1630
ag45
(g49
S'\xd0<\xb1%\x10h\x0e@'
p1631
tp1632
Rp1633
ag45
(g49
S'f\xd9\x17*\x07C\x0e@'
p1634
tp1635
Rp1636
ag45
(g49
S't\x17\xd6Q\x98D\x0e@'
p1637
tp1638
Rp1639
ag45
(g49
S'\xef\xfa\xbc\x834\x05\x0f@'
p1640
tp1641
Rp1642
ag45
(g49
S'k<zx!\xe3\x0e@'
p1643
tp1644
Rp1645
ag45
(g49
S'\xbbG\xca\x16t\xa8\x0e@'
p1646
tp1647
Rp1648
ag45
(g49
S'z\xad_C\xa98\x0e@'
p1649
tp1650
Rp1651
ag45
(g49
S'\xec#\x88@~L\r@'
p1652
tp1653
Rp1654
ag45
(g49
S'\xc6\x13q\xff*\xff\x0c@'
p1655
tp1656
Rp1657
ag45
(g49
S'\x8c\x01}\x9f\r\xa7\x0c@'
p1658
tp1659
Rp1660
ag45
(g49
S'\x04?\xea\xa2\x08\xba\t@'
p1661
tp1662
Rp1663
asI8
(lp1664
g45
(g49
S'\x91\xf3\xcb\x92\x11\xae\x1b@'
p1665
tp1666
Rp1667
ag45
(g49
S'jE\x9e\x82\x1f\x9c\x1b@'
p1668
tp1669
Rp1670
ag45
(g49
S'\x8a\xae(W\xff\x86\x1b@'
p1671
tp1672
Rp1673
ag45
(g49
S'\x06\x9e\x8e8x\x8d\x1b@'
p1674
tp1675
Rp1676
ag45
(g49
S'\x8d \xcc@\xa9\x8e\x1b@'
p1677
tp1678
Rp1679
ag45
(g49
S'A\x81\xb9^\xbe\xaa\x1b@'
p1680
tp1681
Rp1682
ag45
(g49
S'\x1a\xf4\x0e\xbc\xa0g\x1b@'
p1683
tp1684
Rp1685
ag45
(g49
S'HT\x1c\xfa\xcd\xa9\x1b@'
p1686
tp1687
Rp1688
ag45
(g49
S'\xdb\x8b\xa5\xf1\r\xb8\x1b@'
p1689
tp1690
Rp1691
ag45
(g49
S'0\xf7r\x7f\xdb\xa8\x1b@'
p1692
tp1693
Rp1694
ag45
(g49
S'\xb9\x98\xfb\xc9[\x91\x1b@'
p1695
tp1696
Rp1697
ag45
(g49
S'Cy^\xb0\xed\xb7\x1b@'
p1698
tp1699
Rp1700
ag45
(g49
S',\x08\x08\xe8(\x84\x1b@'
p1701
tp1702
Rp1703
ag45
(g49
S'\xacO!Ii\xab\x1b@'
p1704
tp1705
Rp1706
ag45
(g49
S'<<\x80\x84\xb7\xa9\x1b@'
p1707
tp1708
Rp1709
ag45
(g49
S',:\x86\xa6\x7f\xa8\x1b@'
p1710
tp1711
Rp1712
ag45
(g49
S'\xec\x05\x11\xcf%\xa7\x1b@'
p1713
tp1714
Rp1715
ag45
(g49
S' \x1f\x80{\xa0\xad\x1b@'
p1716
tp1717
Rp1718
ag45
(g49
S'9\xa8\xdf\xdb"\x92\x1b@'
p1719
tp1720
Rp1721
ag45
(g49
S'\xf5\x13dh\xab\xaa\x1b@'
p1722
tp1723
Rp1724
asI75
(lp1725
g45
(g49
S'\xd6\x9ev\xcf1yR@'
p1726
tp1727
Rp1728
ag45
(g49
S'\xab\xdd\xad-\xadxR@'
p1729
tp1730
Rp1731
ag45
(g49
S'\xaa\xf8\xf1\xc35yR@'
p1732
tp1733
Rp1734
ag45
(g49
S':\t\xb9\xb0JzR@'
p1735
tp1736
Rp1737
ag45
(g49
S'{_f!\x85yR@'
p1738
tp1739
Rp1740
ag45
(g49
S'FC\xab1\x05yR@'
p1741
tp1742
Rp1743
ag45
(g49
S'\x1bE\\\xe9\xe5xR@'
p1744
tp1745
Rp1746
ag45
(g49
S'1\xf0\xad\xf3\xb6xR@'
p1747
tp1748
Rp1749
ag45
(g49
S'\xaaS\xc6V\xc3xR@'
p1750
tp1751
Rp1752
ag45
(g49
S'J\x88\xbf\x0f\xd8yR@'
p1753
tp1754
Rp1755
ag45
(g49
S'\xcb\xdf\xb9\xe7\x16xR@'
p1756
tp1757
Rp1758
ag45
(g49
S'\xf5S\x0c\xfa\x1czR@'
p1759
tp1760
Rp1761
ag45
(g49
S'H\x0f\xca \xd3yR@'
p1762
tp1763
Rp1764
ag45
(g49
S'\x02\xadG\xb3yyR@'
p1765
tp1766
Rp1767
ag45
(g49
S'c\x8fX\x98VzR@'
p1768
tp1769
Rp1770
ag45
(g49
S'\xb3c\xe7a\xaexR@'
p1771
tp1772
Rp1773
ag45
(g49
S'\xc97\xc7>_yR@'
p1774
tp1775
Rp1776
ag45
(g49
S"\xb2!'O2yR@"
p1777
tp1778
Rp1779
ag45
(g49
S'~a\xaa\x10kxR@'
p1780
tp1781
Rp1782
ag45
(g49
S'\x90z\xff\x967yR@'
p1783
tp1784
Rp1785
asI25
(lp1786
g45
(g49
S'\xf6}\xbdP\x13\xe97@'
p1787
tp1788
Rp1789
ag45
(g49
S'\x96\xf7\x96\x96x\xe37@'
p1790
tp1791
Rp1792
ag45
(g49
S'a\x10\xec\x96\x12\xec7@'
p1793
tp1794
Rp1795
ag45
(g49
S'\xdf+\xbd\xdaa\xe47@'
p1796
tp1797
Rp1798
ag45
(g49
S'\x80\xa0\xb6$\xb8\xeb7@'
p1799
tp1800
Rp1801
ag45
(g49
S'\xc7\x14\xbb\x98Z\xe87@'
p1802
tp1803
Rp1804
ag45
(g49
S'\x8a;2\x9d\xf5\xe97@'
p1805
tp1806
Rp1807
ag45
(g49
S'\x98fDS\xc3\xe17@'
p1808
tp1809
Rp1810
ag45
(g49
S'\xeb{#dJ\xe17@'
p1811
tp1812
Rp1813
ag45
(g49
S'\xa8\x92\xd6\xddd\xe57@'
p1814
tp1815
Rp1816
ag45
(g49
S'\xb4\xda#\x91\x9a\xe57@'
p1817
tp1818
Rp1819
ag45
(g49
S'\xd9{\x13*&\xe67@'
p1820
tp1821
Rp1822
ag45
(g49
S'Sg\xdb\xb9\xe1\xdd7@'
p1823
tp1824
Rp1825
ag45
(g49
S'MHj\xb56\xea7@'
p1826
tp1827
Rp1828
ag45
(g49
S'\xb8aZ,\x9d\xe77@'
p1829
tp1830
Rp1831
ag45
(g49
S'\xd4\x8a\x85D\x1d\xe87@'
p1832
tp1833
Rp1834
ag45
(g49
S':S8\xac\x11\xe47@'
p1835
tp1836
Rp1837
ag45
(g49
S'\xc4\xdbc_\x95\xe17@'
p1838
tp1839
Rp1840
ag45
(g49
S'cZ\xd0\n\xe5\xe97@'
p1841
tp1842
Rp1843
ag45
(g49
S'\x03\x8e\n\xa5Q\xe97@'
p1844
tp1845
Rp1846
asI250
(lp1847
g45
(g49
S'\x82\xf6\xe0\xcd\x1e\x1bo@'
p1848
tp1849
Rp1850
ag45
(g49
S'?\x12T\xb9U\x1do@'
p1851
tp1852
Rp1853
ag45
(g49
S'\xfa\xd2\xc7\xe3\xa7\x1do@'
p1854
tp1855
Rp1856
ag45
(g49
S',\xb4\x17pf\x1bo@'
p1857
tp1858
Rp1859
ag45
(g49
S'\xf3`D\x07\xf9\x1co@'
p1860
tp1861
Rp1862
ag45
(g49
S'\xb3\\3\x03\x8f\x1bo@'
p1863
tp1864
Rp1865
ag45
(g49
S'\xa1\xf0\xbb\x86\x95\x1do@'
p1866
tp1867
Rp1868
ag45
(g49
S'\\\x92\xc4wk\x1do@'
p1869
tp1870
Rp1871
ag45
(g49
S'\xce\xe2\xfel}\x1co@'
p1872
tp1873
Rp1874
ag45
(g49
S'\xa4;\xda\xb2_\x1co@'
p1875
tp1876
Rp1877
ag45
(g49
S'\xb3\x7f\x02\xfc\xf0\x1co@'
p1878
tp1879
Rp1880
ag45
(g49
S'7\x04\xeby\xef\x1co@'
p1881
tp1882
Rp1883
ag45
(g49
S'\xc3~tQQ\x1co@'
p1884
tp1885
Rp1886
ag45
(g49
S'\xbf\x98\x97\xf8\x03\x1co@'
p1887
tp1888
Rp1889
ag45
(g49
S'\x1a\xaf\x07\x94\xbb\x1bo@'
p1890
tp1891
Rp1892
ag45
(g49
S'\xe9\xcd"\x12\xfc\x1bo@'
p1893
tp1894
Rp1895
ag45
(g49
S'\x83\xec!\xed\x8b\x1co@'
p1896
tp1897
Rp1898
ag45
(g49
S'\x02F\xb4%\x8e\x1co@'
p1899
tp1900
Rp1901
ag45
(g49
S'x\xe6]+?\x1co@'
p1902
tp1903
Rp1904
ag45
(g49
S'\xf6\t \xe8\xb2\x1co@'
p1905
tp1906
Rp1907
assg14
(dp1908
I2
(lp1909
g45
(g49
S'\x94<xxE\xa9\xec?'
p1910
tp1911
Rp1912
ag45
(g49
S">\x85'\xac:\xaa\xeb?"
p1913
tp1914
Rp1915
ag45
(g49
S'\xb4\xd6\xd89\x89\x9a\xea?'
p1916
tp1917
Rp1918
ag45
(g49
S'\xc3\xbd\xa4\x84\x0b\x05\xed?'
p1919
tp1920
Rp1921
ag45
(g49
S'\xcb\x0c\x84\x93\xab\x80\xee?'
p1922
tp1923
Rp1924
ag45
(g49
S'\xb2 \x1e\xe2(*\xef?'
p1925
tp1926
Rp1927
ag45
(g49
S'q\xb2rF\xee\x88\xea?'
p1928
tp1929
Rp1930
ag45
(g49
S'\xa5cQ\xb7\x1e*\xeb?'
p1931
tp1932
Rp1933
ag45
(g49
S'\xde\xaa\x15\x13\x03\xbd\xed?'
p1934
tp1935
Rp1936
ag45
(g49
S'\x91\x14\xe9\xd9\xe0\xb3\xea?'
p1937
tp1938
Rp1939
ag45
(g49
S'\r\x0f\xcb_\xe1<\xea?'
p1940
tp1941
Rp1942
ag45
(g49
S'\xa7\xaf;^B \xeb?'
p1943
tp1944
Rp1945
ag45
(g49
S'\x023Sg+\x9e\xec?'
p1946
tp1947
Rp1948
ag45
(g49
S'\xecq\x18`\x1a\xf5\xed?'
p1949
tp1950
Rp1951
ag45
(g49
S'0\xd4"%\x87\x98\xec?'
p1952
tp1953
Rp1954
ag45
(g49
S'\xb2\xf3\xff\xb4E\xe3\xec?'
p1955
tp1956
Rp1957
ag45
(g49
S'\xcb\x89Vx\xa1\xc8\xed?'
p1958
tp1959
Rp1960
ag45
(g49
S'=\x9c\xd8\x7f\x96\xdd\xeb?'
p1961
tp1962
Rp1963
ag45
(g49
S'b \xfb\x7f\xa0D\xee?'
p1964
tp1965
Rp1966
ag45
(g49
S'S\x8b\xb99\xcf\xe4\xeb?'
p1967
tp1968
Rp1969
asI5
(lp1970
g45
(g49
S'4P\n\x82\x1c"\x0f@'
p1971
tp1972
Rp1973
ag45
(g49
S'\xf1\xc8\x11\xc9\x08\x8c\x0f@'
p1974
tp1975
Rp1976
ag45
(g49
S'\xe0\x1b_ \xa6\xca\x0f@'
p1977
tp1978
Rp1979
ag45
(g49
S'\x8b\xces\xb9\xe0!\x0f@'
p1980
tp1981
Rp1982
ag45
(g49
S'\xbf\xb9\xa4Ix\xad\x0f@'
p1983
tp1984
Rp1985
ag45
(g49
S'\xe2\x15U/\x89h\x0f@'
p1986
tp1987
Rp1988
ag45
(g49
S'"M\xe8\x81#\xd0\x0f@'
p1989
tp1990
Rp1991
ag45
(g49
S'\x90\xa4\x08\xcc\xa0\x9a\x0f@'
p1992
tp1993
Rp1994
ag45
(g49
S'q\xf7x\r\xf9\x8b\x0e@'
p1995
tp1996
Rp1997
ag45
(g49
S'2\xd8\xd7\xfa\x1by\x0f@'
p1998
tp1999
Rp2000
ag45
(g49
S'\x02r\xf9\xcd\xe7\xbf\x0f@'
p2001
tp2002
Rp2003
ag45
(g49
S'\xb6F~\xdb\xc9l\x0f@'
p2004
tp2005
Rp2006
ag45
(g49
S'2\xc5.\xe7m8\x0f@'
p2007
tp2008
Rp2009
ag45
(g49
S'L\xf6\xa8\x9f\xa6\xbc\x0f@'
p2010
tp2011
Rp2012
ag45
(g49
S'\xca<9\xd2W\xda\x0f@'
p2013
tp2014
Rp2015
ag45
(g49
S'\x9c6\x89\xeeK1\x0f@'
p2016
tp2017
Rp2018
ag45
(g49
S'\xa4\xbb\x10\t\x1b\xd0\x0f@'
p2019
tp2020
Rp2021
ag45
(g49
S'4\xc9\x95P\xf6|\x0f@'
p2022
tp2023
Rp2024
ag45
(g49
S'\xeb\x10\x15\xaf`\x9c\x0f@'
p2025
tp2026
Rp2027
ag45
(g49
S'V\xa5R\xbe0\xca\x0f@'
p2028
tp2029
Rp2030
asI8
(lp2031
g45
(g49
S'^\x03\x08}\x99\xd9\x1b@'
p2032
tp2033
Rp2034
ag45
(g49
S'\xc8\xcbn\xf4^\xdf\x1b@'
p2035
tp2036
Rp2037
ag45
(g49
S'F[{\x81X\xe9\x1b@'
p2038
tp2039
Rp2040
ag45
(g49
S'?\xe1e\xd3[\xc9\x1b@'
p2041
tp2042
Rp2043
ag45
(g49
S'M\xc1\xd8\xc6x\xe5\x1b@'
p2044
tp2045
Rp2046
ag45
(g49
S'<\xa8I\x1e\xdbY\x1b@'
p2047
tp2048
Rp2049
ag45
(g49
S'\x84\xfb\x84\x92\xbe\xc4\x1b@'
p2050
tp2051
Rp2052
ag45
(g49
S'\xe3\x01OVm\xe2\x1b@'
p2053
tp2054
Rp2055
ag45
(g49
S'V\x13\xc0\x18m\xda\x1b@'
p2056
tp2057
Rp2058
ag45
(g49
S"')\x10`\xd6\xe3\x1b@"
p2059
tp2060
Rp2061
ag45
(g49
S'\xd6yO\x97I\xd0\x1b@'
p2062
tp2063
Rp2064
ag45
(g49
S'\xab<e\x19\xbc\xb1\x1b@'
p2065
tp2066
Rp2067
ag45
(g49
S'\x98\x8b|\x16I\xc3\x1b@'
p2068
tp2069
Rp2070
ag45
(g49
S'\xf3"\x93\xc3F\xc6\x1b@'
p2071
tp2072
Rp2073
ag45
(g49
S'C\xf5?\x12\xc6\xcd\x1b@'
p2074
tp2075
Rp2076
ag45
(g49
S',\xef\xa1\x05\x15\xda\x1b@'
p2077
tp2078
Rp2079
ag45
(g49
S'\xd9\x819\xb7\x98\xf2\x1b@'
p2080
tp2081
Rp2082
ag45
(g49
S'\xc6\xa5\x89\xa1T\xce\x1b@'
p2083
tp2084
Rp2085
ag45
(g49
S'\xe4\x0b\xd62\x04\xd0\x1b@'
p2086
tp2087
Rp2088
ag45
(g49
S'wbjJ\x03\xe5\x1b@'
p2089
tp2090
Rp2091
asI75
(lp2092
g45
(g49
S'\xbb\x10\xd7Ot}R@'
p2093
tp2094
Rp2095
ag45
(g49
S'xC\nC\xd0}R@'
p2096
tp2097
Rp2098
ag45
(g49
S'\x94\xb8t\x0f\xb1}R@'
p2099
tp2100
Rp2101
ag45
(g49
S'\x86\xd6\xb0\xcb^~R@'
p2102
tp2103
Rp2104
ag45
(g49
S'\xd7z\xec\x15\xdf}R@'
p2105
tp2106
Rp2107
ag45
(g49
S'b\x08\xb7\xa1\xe8xR@'
p2108
tp2109
Rp2110
ag45
(g49
S'\x91$<{\x05\x7fR@'
p2111
tp2112
Rp2113
ag45
(g49
S'\x00\x1f\xd9\x0c\xec|R@'
p2114
tp2115
Rp2116
ag45
(g49
S"\xe8\xdb\xbf'g}R@"
p2117
tp2118
Rp2119
ag45
(g49
S'\xc6BoEu}R@'
p2120
tp2121
Rp2122
ag45
(g49
S'\xaf\x83njr}R@'
p2123
tp2124
Rp2125
ag45
(g49
S'\xd8\x1ao\x1f\xde}R@'
p2126
tp2127
Rp2128
ag45
(g49
S'-!B7\xce|R@'
p2129
tp2130
Rp2131
ag45
(g49
S'\ry\x94\x17\x8a~R@'
p2132
tp2133
Rp2134
ag45
(g49
S'\x06\xac\x18\xee\x03~R@'
p2135
tp2136
Rp2137
ag45
(g49
S'\x7fK\x11\xaa\xef}R@'
p2138
tp2139
Rp2140
ag45
(g49
S'\xedr\xc67_{R@'
p2141
tp2142
Rp2143
ag45
(g49
S'\xc8\xf0\xbbHJ}R@'
p2144
tp2145
Rp2146
ag45
(g49
S'[&WN\xdd|R@'
p2147
tp2148
Rp2149
ag45
(g49
S'\xf3tz\x81\xd5~R@'
p2150
tp2151
Rp2152
asI25
(lp2153
g45
(g49
S'YP2wi\xf67@'
p2154
tp2155
Rp2156
ag45
(g49
S'\x05\xce\xd7s\x9e\xf57@'
p2157
tp2158
Rp2159
ag45
(g49
S'\xdft\x95W\x00\xf77@'
p2160
tp2161
Rp2162
ag45
(g49
S'Clh\xc4\xa3\xf97@'
p2163
tp2164
Rp2165
ag45
(g49
S'\x87\xb3$\xfd\x8f\xfb7@'
p2166
tp2167
Rp2168
ag45
(g49
S'\xff}0s!\xf97@'
p2169
tp2170
Rp2171
ag45
(g49
S'L8\x825\xe1\xf07@'
p2172
tp2173
Rp2174
ag45
(g49
S'\xa5\x1a\x19kf\xfa7@'
p2175
tp2176
Rp2177
ag45
(g49
S'\xf3\x9c;\x04\xa9\xf27@'
p2178
tp2179
Rp2180
ag45
(g49
S'\xbdx&\xb6\xf9\xee7@'
p2181
tp2182
Rp2183
ag45
(g49
S'\x17\xd2~\xcd\x9c\xfc7@'
p2184
tp2185
Rp2186
ag45
(g49
S"'\x9d\x97\xda\x19\xf47@"
p2187
tp2188
Rp2189
ag45
(g49
S'F.5\r\xb9\xfb7@'
p2190
tp2191
Rp2192
ag45
(g49
S'\xa7mg\n\xe0\xf77@'
p2193
tp2194
Rp2195
ag45
(g49
S'\xdd\x011L\x0c\xfb7@'
p2196
tp2197
Rp2198
ag45
(g49
S'vw\x8c\xc2\xff\xec7@'
p2199
tp2200
Rp2201
ag45
(g49
S'\xbaf[Z0\xf97@'
p2202
tp2203
Rp2204
ag45
(g49
S'\xf53\x05\xa9\xf0\xf47@'
p2205
tp2206
Rp2207
ag45
(g49
S'\x92\x8c\x1f\xfb{\xf77@'
p2208
tp2209
Rp2210
ag45
(g49
S'\xe2\x8fP\xda6\xf97@'
p2211
tp2212
Rp2213
asI250
(lp2214
g45
(g49
S'\x96\xac\xf2V\x92\x1fo@'
p2215
tp2216
Rp2217
ag45
(g49
S' [\x97\xec\r\x1eo@'
p2218
tp2219
Rp2220
ag45
(g49
S'\x1f\x1f\x0cCk\x1fo@'
p2221
tp2222
Rp2223
ag45
(g49
S'{{\xb6LR\x1do@'
p2224
tp2225
Rp2226
ag45
(g49
S'\x93Uh+>\x1fo@'
p2227
tp2228
Rp2229
ag45
(g49
S'\xd4C\xbe\xac=\x1eo@'
p2230
tp2231
Rp2232
ag45
(g49
S'zxMH\x03\x1fo@'
p2233
tp2234
Rp2235
ag45
(g49
S'\xd4\xcf\xc3D\x87\x1do@'
p2236
tp2237
Rp2238
ag45
(g49
S'<\xb5\x1aP\xa3\x1eo@'
p2239
tp2240
Rp2241
ag45
(g49
S'\xb54\xa47\x07\x1fo@'
p2242
tp2243
Rp2244
ag45
(g49
S'\x98\xeaX\xb5\xf1\x1eo@'
p2245
tp2246
Rp2247
ag45
(g49
S'5\xba\x8a\x0e\xc0\x1eo@'
p2248
tp2249
Rp2250
ag45
(g49
S'J\xbb\xd7#\xab\x1eo@'
p2251
tp2252
Rp2253
ag45
(g49
S')\xe4F\x00K\x1fo@'
p2254
tp2255
Rp2256
ag45
(g49
S'\x05~\xe2\xc4\xa7\x1do@'
p2257
tp2258
Rp2259
ag45
(g49
S'-QC\xf3!\x1fo@'
p2260
tp2261
Rp2262
ag45
(g49
S'\xe5\xb16X\x9e\x1eo@'
p2263
tp2264
Rp2265
ag45
(g49
S'E6P\xbe\xdc\x1eo@'
p2266
tp2267
Rp2268
ag45
(g49
S'\xa1\x9c\xc5\xf1\x11\x1fo@'
p2269
tp2270
Rp2271
ag45
(g49
S'\x99\xabs\x93@\x1fo@'
p2272
tp2273
Rp2274
assssS'id'
p2275
I4
s.