(dp0
S'name'
p1
S'number-of-embeddings'
p2
sS'settings'
p3
(dp4
S'n_e'
p5
I10
sS'v'
p6
I10000
sS'problems'
p7
(lp8
I1
aI2
aI6
aI8
asS'num_runs'
p9
I20
sS'n'
p10
I10000
ssS'algs'
p11
(lp12
S'RESOO'
p13
aS'SRESOO'
p14
aS'EmbeddedHunter'
p15
asS'at'
p16
(lp17
I1
aI2
aI5
aI8
aI10
aI20
asS'data'
p18
(dp19
I8
(dp20
g13
(dp21
I1
(lp22
F6.883529469390194
aF8.44285128218272
aF7.806442316276511
aF8.014410685719568
aF8.629288430899965
aF8.271761156125079
aF7.631056997235417
aF8.52576049136363
aF8.34115411982932
aF8.290371264150828
aF8.890930814788193
aF6.869868709327143
aF8.131870771703602
aF7.30537618036818
aF8.62976862388716
aF8.526567171777923
aF7.74738720080787
aF9.099350271881905
aF8.609111859040944
aF8.864392330093716
asI2
(lp23
F8.242458148682633
aF6.447490348571719
aF8.435953496710066
aF7.682640377988715
aF8.459825778555487
aF8.188794705646814
aF8.231337245409524
aF8.313810391067646
aF7.642683417315805
aF8.449264693847764
aF8.111253454846764
aF7.505699650279054
aF7.269150911084859
aF8.793799812426853
aF8.369912745028158
aF8.318903442029296
aF8.28479288566832
aF8.471779174455413
aF7.673536024277851
aF8.392333170293194
asI5
(lp24
F8.301712935353665
aF7.993575429519016
aF6.7461332816213755
aF8.105229449311167
aF7.279894647106763
aF7.567120021891872
aF8.181702745629778
aF6.3547176302037585
aF7.025717330837111
aF7.514137165771277
aF8.022338432689551
aF7.571236378320576
aF8.354204719712078
aF7.792593079253281
aF6.600773885615389
aF8.49908509668354
aF7.611854503566306
aF7.858807017081725
aF7.7613069236704515
aF6.201373676390677
asI8
(lp25
F8.075928066597964
aF6.834670999015742
aF7.117137665848535
aF6.797612661148159
aF7.682785381955945
aF8.469087310400038
aF7.354407904846669
aF7.109843704082577
aF7.915436257257241
aF7.359535203753129
aF7.431784575884226
aF7.7204793058572
aF8.209025698767068
aF6.896841779449613
aF8.132961146179142
aF7.1181674660507515
aF7.5847990047365315
aF6.65186311081456
aF7.900412437761743
aF7.631304497599729
asI10
(lp26
F7.825833064843753
aF7.800310504441901
aF6.05604983892664
aF8.04512011666276
aF7.337635568846707
aF7.81099829998654
aF7.8250060416208385
aF6.804479184585501
aF7.785285729325727
aF6.898549841999808
aF7.891057152828067
aF6.866010236079767
aF7.574384642924754
aF8.106754757201056
aF8.340217310198577
aF7.643804316166463
aF7.0790864080565115
aF7.6751718633754376
aF8.049046121663748
aF7.678405637225195
asI20
(lp27
F7.912972588077137
aF6.2372917283431555
aF7.92721622043663
aF7.714168277211151
aF7.526655966231031
aF6.960449044075714
aF7.324102976540894
aF6.7169571714358085
aF7.180128249103296
aF6.993450112141678
aF5.497708942396667
aF7.729510056008763
aF6.554826125431244
aF6.689733945676121
aF7.1778065002397256
aF7.04652105592408
aF7.118800828264183
aF6.364842234374365
aF5.8328197306315595
aF7.926276281994852
assg15
(dp28
I1
(lp29
F5.704191414346251
aF5.911957149029529
aF5.733490045243897
aF5.805601449460774
aF5.5811873887686545
aF5.060132999913744
aF5.724868923024967
aF5.821395079728042
aF5.550770509790311
aF5.834304025683679
aF5.933384298107558
aF6.178504161000891
aF5.259323941731317
aF5.5482686695585635
aF6.128344439537965
aF5.162186910535038
aF4.866792837953142
aF5.222336387567367
aF5.764964510550811
aF5.7675632417170455
asI2
(lp30
F5.345805843949716
aF5.280740330145953
aF5.854185764847816
aF5.420440613685116
aF5.782393492811014
aF5.24959981995897
aF5.972184214330618
aF5.408698827970117
aF5.914723746163094
aF5.595704531982019
aF5.231979718335623
aF5.180633777898141
aF5.158753040254023
aF6.197806954868607
aF6.072952293534623
aF5.6760421999691
aF5.899281085270946
aF5.385395677009878
aF5.8646292439128445
aF5.782726100007157
asI5
(lp31
F5.461673702091236
aF5.110588906989115
aF5.424612713009687
aF3.325228772758504
aF5.150957038176621
aF5.541575113421018
aF4.970186437535215
aF5.0968818834786696
aF5.365832999044194
aF6.144306786489889
aF4.869505683230077
aF5.509763209434254
aF4.9784144093001785
aF5.612299370667284
aF4.537146194822075
aF5.244119950122542
aF6.119355330427734
aF5.848332802145407
aF5.682256623993627
aF5.8585907390619845
asI8
(lp32
F5.825052159457126
aF6.126090829156681
aF5.332319182946076
aF5.959427512648304
aF5.808521194262507
aF5.399492380229194
aF5.515286006949122
aF5.418866608045839
aF5.03254170059266
aF5.723690445370561
aF4.8543223916522145
aF5.603852850508513
aF5.288109133348538
aF5.750713241862218
aF5.168515355384574
aF5.228008837824898
aF5.292492162989969
aF5.383518930744902
aF6.067218604039333
aF4.939359892371776
asI10
(lp33
F5.643193604303217
aF5.715218971129076
aF5.424583933714999
aF5.659339585892354
aF5.47534219510052
aF5.459067419521265
aF4.699824409780678
aF6.001513734433367
aF5.702026647037194
aF5.52962844208303
aF5.812399298692796
aF5.825267010991848
aF6.062553340991904
aF5.784140807875783
aF5.716523905954606
aF5.927196379975644
aF4.7623972341043235
aF5.596291661217357
aF5.583792235881347
aF5.480046047951152
asI20
(lp34
F5.767480922262436
aF4.728306416187451
aF5.11928227544556
aF5.424121069771861
aF5.463398758589744
aF5.569051288021598
aF5.480050588577146
aF5.531456441850821
aF5.269629751047884
aF5.755992905181312
aF5.745482270795488
aF5.182325649917754
aF5.4294293719467035
aF5.572706675528668
aF5.819978256853702
aF6.111530052410579
aF5.3728821375605555
aF6.342566650671603
aF5.665717060308953
aF5.244529811667007
assg14
(dp35
I1
(lp36
F9.32373136326573
aF9.370120077637011
aF9.42405217731601
aF9.381651557771205
aF9.41066375388273
aF9.443831684455649
aF9.388858173673352
aF9.212788401158656
aF9.403274293722404
aF9.447054910007216
aF9.419910596054901
aF9.252752198117413
aF9.404111808314976
aF9.414556986037688
aF9.427769270643552
aF9.350820428324901
aF9.310174061955443
aF9.426416465630314
aF9.283148724263844
aF9.22921092998747
asI2
(lp37
F9.34691712435666
aF9.36704274766538
aF9.390169871447412
aF9.305010621615123
aF9.362520579537843
aF9.404531230549999
aF9.414336370451998
aF9.414190993788132
aF9.33500078736826
aF9.408583610727378
aF9.409350378639987
aF9.422234867630923
aF9.439408826457363
aF9.423487917384088
aF9.418154548826765
aF9.432709417183492
aF9.353856620681942
aF9.294417644404417
aF9.381489412408909
aF9.26829705916565
asI5
(lp38
F9.371258347898436
aF9.337326519022861
aF9.355499848241926
aF9.33163910014152
aF9.349014260117727
aF9.303201558171432
aF9.375929977063867
aF9.240986879821769
aF9.357430479343568
aF9.316093517554338
aF9.261899143428403
aF9.34207549837939
aF9.258852625043016
aF9.339240676673269
aF9.280465879423383
aF9.370726584927754
aF9.313206195660964
aF9.278378798280565
aF9.266218149800922
aF9.342397584736977
asI8
(lp39
F9.254634948249546
aF9.352529782591075
aF9.305056677051642
aF9.264660577745488
aF9.187084021913744
aF9.342752859241905
aF9.319137399700416
aF9.323280819358109
aF9.30305273600673
aF9.306834192428845
aF9.32423602545375
aF9.332581443085603
aF9.373567233748773
aF9.31683867533114
aF9.33798575013342
aF9.282904249124106
aF9.274155897586526
aF9.215552857075222
aF9.343584441545605
aF9.292990170667037
asI10
(lp40
F9.339185207592127
aF9.287143627557164
aF9.203229869102755
aF9.29898209085642
aF9.275725811561808
aF9.323834478594387
aF9.311025500340179
aF9.270711010521719
aF9.275333355647376
aF9.29218071622542
aF9.294608391448739
aF9.346613837516193
aF9.297958477758586
aF9.315168673914112
aF9.329342079047011
aF9.35192186809803
aF9.299622925316635
aF9.314885570838392
aF9.289716290971883
aF9.334685415442088
asI20
(lp41
F9.257285150954086
aF9.289595529298342
aF9.268918133158623
aF9.260475767601887
aF9.275322240577731
aF9.299861994093224
aF9.251366477143804
aF9.232740249241965
aF9.305962836532425
aF9.300922400752931
aF9.341112192719612
aF9.337067220262458
aF9.311425015339758
aF9.252308428388906
aF9.29521449908362
aF9.29048088994308
aF9.282464810503555
aF9.24691389185756
aF9.162538420845303
aF9.176536209127274
asssI1
(dp42
g13
(dp43
I1
(lp44
cnumpy.core.multiarray
scalar
p45
(cnumpy
dtype
p46
(S'f8'
p47
I0
I1
tp48
Rp49
(I3
S'<'
p50
NNNI-1
I-1
I0
tp51
bS'g\x98\xfe\x83\x84\\\x10A'
p52
tp53
Rp54
ag45
(g49
S'\xb1\xab9L\xb8\r\xbb@'
p55
tp56
Rp57
ag45
(g49
S'\xd1\x08QG\x07\x94I@'
p58
tp59
Rp60
ag45
(g49
S'\xe1{\x98\x85\xa1\x08\xf6@'
p61
tp62
Rp63
ag45
(g49
S'\xee\xa5\xf1\x16]W\x9a@'
p64
tp65
Rp66
ag45
(g49
S'\xf6n\xe66U&\xc8@'
p67
tp68
Rp69
ag45
(g49
S'D\x9ds\xc3\x02\xc6\xee@'
p70
tp71
Rp72
ag45
(g49
S'\x12\xb5\x12ImU\xf9@'
p73
tp74
Rp75
ag45
(g49
S'\xd6\r|X\x99\xc4\xf2@'
p76
tp77
Rp78
ag45
(g49
S'\xa6\xc6\xd9{4\x16\xfa@'
p79
tp80
Rp81
ag45
(g49
S'M`Z:\xb6\xc9\\@'
p82
tp83
Rp84
ag45
(g49
S'aH\xb9\xf9\xfc3\x03A'
p85
tp86
Rp87
ag45
(g49
S'7\xa0<\xb5\xac\x16\xeb@'
p88
tp89
Rp90
ag45
(g49
S'\xf2\xc7\x05\x06\x98\xaa\x08A'
p91
tp92
Rp93
ag45
(g49
S'56\xca0\xa0\xf0\x06A'
p94
tp95
Rp96
ag45
(g49
S'\xa5\xf9\xcf\x94f\x96\xf9@'
p97
tp98
Rp99
ag45
(g49
S'\xf0\xdd\xa8|nb\x07A'
p100
tp101
Rp102
ag45
(g49
S'\x15\xbb\xa6[\xc4\xa3F@'
p103
tp104
Rp105
ag45
(g49
S'\xbb\xa1\xad1\xab\x08\xfb@'
p106
tp107
Rp108
ag45
(g49
S'\xa5$9\x9eS\xabY@'
p109
tp110
Rp111
asI2
(lp112
g45
(g49
S'\xef\xd3\xe7\x9c\xed\x88\xde@'
p113
tp114
Rp115
ag45
(g49
S'\x04V\xc7\xb4\xc2\xde\xe0@'
p116
tp117
Rp118
ag45
(g49
S'w0\xdd\x96C\xb8U@'
p119
tp120
Rp121
ag45
(g49
S'\xdab\xe2\x1b\xea\x93\xc3@'
p122
tp123
Rp124
ag45
(g49
S'\xfc\xca\xf2\xe9\xb6#\xfa@'
p125
tp126
Rp127
ag45
(g49
S'U\xb8c\x8eVzN@'
p128
tp129
Rp130
ag45
(g49
S"['\xe5\xf0)\x12P@"
p131
tp132
Rp133
ag45
(g49
S'\xfa\x82\x04=\x92\xe0[@'
p134
tp135
Rp136
ag45
(g49
S'\x18\x9eo\x97\x981\xe4@'
p137
tp138
Rp139
ag45
(g49
S'\x16\xcf8\xb1\xbc\xeaK@'
p140
tp141
Rp142
ag45
(g49
S'@\xdb0"\x11\x10\xe6@'
p143
tp144
Rp145
ag45
(g49
S']\xc9<\xbe\xa6\x89\xcb@'
p146
tp147
Rp148
ag45
(g49
S'p\xcc\x03\n\xf7~H@'
p149
tp150
Rp151
ag45
(g49
S'HQ@\xe7\x12\xc4m@'
p152
tp153
Rp154
ag45
(g49
S'jSC\x10[QY@'
p155
tp156
Rp157
ag45
(g49
S"'\xf9\xdc\xe1\xa8\xcd\x87@"
p158
tp159
Rp160
ag45
(g49
S'-\x85\xbc9\x95\x91v@'
p161
tp162
Rp163
ag45
(g49
S'u\xd0w?\xec\x93\xfa@'
p164
tp165
Rp166
ag45
(g49
S'\xfa\xe1\xb2\xf3FKb@'
p167
tp168
Rp169
ag45
(g49
S'\x02pz(I\xeb\xa5@'
p170
tp171
Rp172
asI5
(lp173
g45
(g49
S'\xbc\x02\\\xa2\x19\xe5R@'
p174
tp175
Rp176
ag45
(g49
S'\xf1\xb6\xffKC\x9fT@'
p177
tp178
Rp179
ag45
(g49
S'oT\x8a\x11K}\x83@'
p180
tp181
Rp182
ag45
(g49
S'\xff\xdf\r\xdf\x00FK@'
p183
tp184
Rp185
ag45
(g49
S'G\x1b\xbf\x8d\xa9mC@'
p186
tp187
Rp188
ag45
(g49
S'#|\x8dc\x9bBR@'
p189
tp190
Rp191
ag45
(g49
S'\x10@\xe3\x93\xa5\xc0M@'
p192
tp193
Rp194
ag45
(g49
S'j\xac\xa3\xbc\xb0\xe0[@'
p195
tp196
Rp197
ag45
(g49
S'a\xf8\xc2{\xe3\xf0\xa4@'
p198
tp199
Rp200
ag45
(g49
S'\xdd\x08y\xef\xb0\x1f\xda@'
p201
tp202
Rp203
ag45
(g49
S'!\x9b=\x8f\xdd\xf8\x83@'
p204
tp205
Rp206
ag45
(g49
S'D\x84\x9a\xff9^G@'
p207
tp208
Rp209
ag45
(g49
S'\xa6\x8b\x0b\xd6j\xcds@'
p210
tp211
Rp212
ag45
(g49
S'\xe0\x98*\x9ag;\xb8@'
p213
tp214
Rp215
ag45
(g49
S'\x03D\x96\xacfIR@'
p216
tp217
Rp218
ag45
(g49
S'[\xa7\xe5\x18\xb3\x1dX@'
p219
tp220
Rp221
ag45
(g49
S'r\x15\xce\x13{nP@'
p222
tp223
Rp224
ag45
(g49
S':\xceVV\xdfOC@'
p225
tp226
Rp227
ag45
(g49
S'\xc7gl\xb9v\xa9\xab@'
p228
tp229
Rp230
ag45
(g49
S'\x04\xbb\xb7?\x19X\xe1@'
p231
tp232
Rp233
asI8
(lp234
g45
(g49
S'\xf8\x8d\t\xb0>\x07O@'
p235
tp236
Rp237
ag45
(g49
S'.\xca\x91\x19\x8b@b@'
p238
tp239
Rp240
ag45
(g49
S'3i\xa4\xc0\x0f\xaa\xb1@'
p241
tp242
Rp243
ag45
(g49
S'\xb5%%\xda\x7f\x8fZ@'
p244
tp245
Rp246
ag45
(g49
S'\xbbF<mjsK@'
p247
tp248
Rp249
ag45
(g49
S'@\x9fQ\xc1\xf7\tE@'
p250
tp251
Rp252
ag45
(g49
S'\x8d\x15\xb1\xd9\xf8|K@'
p253
tp254
Rp255
ag45
(g49
S'\x031|\xa2\xb6\x8bK@'
p256
tp257
Rp258
ag45
(g49
S'2\x82\xb7<\xa3\x0fG@'
p259
tp260
Rp261
ag45
(g49
S'\n\xd8EB"\x03^@'
p262
tp263
Rp264
ag45
(g49
S'Q\x1d \x04\x1a6Q@'
p265
tp266
Rp267
ag45
(g49
S'9\xc5\x80\xfb\xae\xa2@@'
p268
tp269
Rp270
ag45
(g49
S'\x00N\xd5\xeb\xec\xbeK@'
p271
tp272
Rp273
ag45
(g49
S'\x88\xa9\x8dV\xf6\x1eK@'
p274
tp275
Rp276
ag45
(g49
S'\x96\xe5;\x956\xed[@'
p277
tp278
Rp279
ag45
(g49
S'\x1fE\\\xc5\xc8fH@'
p280
tp281
Rp282
ag45
(g49
S'\x0fz\xdf8\xaa\x96U@'
p283
tp284
Rp285
ag45
(g49
S'D\xea\tX\xa5:Q@'
p286
tp287
Rp288
ag45
(g49
S'P\x94>L\xb9QB@'
p289
tp290
Rp291
ag45
(g49
S'\xcc\tO\xd2\xcd\xb3=@'
p292
tp293
Rp294
asI10
(lp295
g45
(g49
S"\xfd\x05\xb1'\xf3\xa5I@"
p296
tp297
Rp298
ag45
(g49
S'\x84\n\xad,.z\\@'
p299
tp300
Rp301
ag45
(g49
S'f4\xd3\xaa\x1aRS@'
p302
tp303
Rp304
ag45
(g49
S'\xfdx`\xba\x1aKA@'
p305
tp306
Rp307
ag45
(g49
S'\xfeOd\xdb^IQ@'
p308
tp309
Rp310
ag45
(g49
S'H.\xd4r\xf1\x14J@'
p311
tp312
Rp313
ag45
(g49
S"\x1c,t|'\nG@"
p314
tp315
Rp316
ag45
(g49
S'\xe3\xb5\xb1\xfb\x07\xa7O@'
p317
tp318
Rp319
ag45
(g49
S'>p\xc1\x85\xa6\xc0f@'
p320
tp321
Rp322
ag45
(g49
S'\xd7\xd5\xec\x82\xbe{C@'
p323
tp324
Rp325
ag45
(g49
S'\x7f\x0b\xe5C\xec\xeaJ@'
p326
tp327
Rp328
ag45
(g49
S'\xa4\xfd\x90\xf6G\xb9h@'
p329
tp330
Rp331
ag45
(g49
S'VY\xf1\x19\xc1\x19M@'
p332
tp333
Rp334
ag45
(g49
S'N\xc3\x84\xf0L{T@'
p335
tp336
Rp337
ag45
(g49
S'\xddL\x1d\xf4OZt@'
p338
tp339
Rp340
ag45
(g49
S' \xac\xee<%#X@'
p341
tp342
Rp343
ag45
(g49
S'\x13\xca\x00P\x92-\x98@'
p344
tp345
Rp346
ag45
(g49
S'\x16\xc2\x85t\x0e.U@'
p347
tp348
Rp349
ag45
(g49
S'\xc2?\xd9\x81_6U@'
p350
tp351
Rp352
ag45
(g49
S'\x88\xe4\x06\xb9n\xb6D@'
p353
tp354
Rp355
asI20
(lp356
g45
(g49
S'\xb7\xd0\xce\x01n\xdaA@'
p357
tp358
Rp359
ag45
(g49
S'`\xca\xd1\xc46\xc8B@'
p360
tp361
Rp362
ag45
(g49
S'1<\xd6r\xdb\x93<@'
p363
tp364
Rp365
ag45
(g49
S'[e\x88\x91\x9b\xfcF@'
p366
tp367
Rp368
ag45
(g49
S'L\x9c\xe1\x0ceNP@'
p369
tp370
Rp371
ag45
(g49
S'\x14f\xfe(\xa6sQ@'
p372
tp373
Rp374
ag45
(g49
S"\x10\x8a\xcfL\xfc'U@"
p375
tp376
Rp377
ag45
(g49
S'\xc4\x1d8\xd8Q\x88E@'
p378
tp379
Rp380
ag45
(g49
S'de"\xf0i\x8fA@'
p381
tp382
Rp383
ag45
(g49
S'(r\xb3\xcap\xb4<@'
p384
tp385
Rp386
ag45
(g49
S'\x8d\xd1;-\xd2\x96P@'
p387
tp388
Rp389
ag45
(g49
S'\xb8\xd7KAZ\x81S@'
p390
tp391
Rp392
ag45
(g49
S'\xd0!q\xaa\x11\x10F@'
p393
tp394
Rp395
ag45
(g49
S'\x12\xca\\r\xaa\xfbQ@'
p396
tp397
Rp398
ag45
(g49
S'\x97\xc2&u\xf2/M@'
p399
tp400
Rp401
ag45
(g49
S'+\xff\xdc\xea\x97\xebG@'
p402
tp403
Rp404
ag45
(g49
S'^u\xb6\x0f\xd9DJ@'
p405
tp406
Rp407
ag45
(g49
S'\x9f\xa3\xeeS\x8bHU@'
p408
tp409
Rp410
ag45
(g49
S'*\xe2o\xc9\xa6\xf0A@'
p411
tp412
Rp413
ag45
(g49
S'\xe9\x93,\x83\xa9\x1bP@'
p414
tp415
Rp416
assg15
(dp417
I1
(lp418
g45
(g49
S'C\xba\xd1\xc89y5@'
p419
tp420
Rp421
ag45
(g49
S'4\xa2G&\xdc\x0bA@'
p422
tp423
Rp424
ag45
(g49
S'\xa91\t[\x1d\xb1B@'
p425
tp426
Rp427
ag45
(g49
S'w\r\x87\xeb\xdf(A@'
p428
tp429
Rp430
ag45
(g49
S'z\xd1\xde\xb6\x17/7@'
p431
tp432
Rp433
ag45
(g49
S"-'\x99\x06\xddHA@"
p434
tp435
Rp436
ag45
(g49
S'\xbaA(`\xfc\xc9I@'
p437
tp438
Rp439
ag45
(g49
S'`.=\xda!CK@'
p440
tp441
Rp442
ag45
(g49
S'\xfeB\xd2\x08\xfe\xc6E@'
p443
tp444
Rp445
ag45
(g49
S'k\x1d\xc9,_\xb97@'
p446
tp447
Rp448
ag45
(g49
S'<\x86\x12\xa5\x82\x9cA@'
p449
tp450
Rp451
ag45
(g49
S'\xd6\x8e\xb2\xf9\xeb\x1c@@'
p452
tp453
Rp454
ag45
(g49
S'\xa2\x05\x86t:\xc7F@'
p455
tp456
Rp457
ag45
(g49
S'\xac\xa4\x05\xc3\x97\xc2E@'
p458
tp459
Rp460
ag45
(g49
S'3\xd3\x9fZ\xf1}<@'
p461
tp462
Rp463
ag45
(g49
S'\x8b\xd8\xda\x16\x8e\xf4?@'
p464
tp465
Rp466
ag45
(g49
S'\x04\x96\xc2f8\xfdF@'
p467
tp468
Rp469
ag45
(g49
S'~(\xd5{\xc5K:@'
p470
tp471
Rp472
ag45
(g49
S'\x1a\x88s\x05x\x8c2@'
p473
tp474
Rp475
ag45
(g49
S'\xf4\xff\xc6Os@A@'
p476
tp477
Rp478
asI2
(lp479
g45
(g49
S'\xb4\x7f}\x86\xd5\xd8B@'
p480
tp481
Rp482
ag45
(g49
S'N\x15*\x0b\x19\nK@'
p483
tp484
Rp485
ag45
(g49
S'\x95~\x86\x05\xa2\xe0@@'
p486
tp487
Rp488
ag45
(g49
S'B\x8a{\xe9do@@'
p489
tp490
Rp491
ag45
(g49
S'\x0cU\xc9A\x84\xb5G@'
p492
tp493
Rp494
ag45
(g49
S'\x14\x1e\xf7t\x97\xad7@'
p495
tp496
Rp497
ag45
(g49
S'\xb0\x92?w\xe1BE@'
p498
tp499
Rp500
ag45
(g49
S'*\xa54\x97\xcc\xd0I@'
p501
tp502
Rp503
ag45
(g49
S'\xea\xc5\x1a\xe4u\x03?@'
p504
tp505
Rp506
ag45
(g49
S'nk\x19l\xae\x8bA@'
p507
tp508
Rp509
ag45
(g49
S'\xf1\x0f\xb7\n\x8d*0@'
p510
tp511
Rp512
ag45
(g49
S'\xb0\xc9\xf4\xf0\xb8\xcdD@'
p513
tp514
Rp515
ag45
(g49
S'\x10\\\xc3\x17\x98\xaeE@'
p516
tp517
Rp518
ag45
(g49
S'zJ\xcb\xc4RhF@'
p519
tp520
Rp521
ag45
(g49
S'jSx>\x93\x879@'
p522
tp523
Rp524
ag45
(g49
S'\x1a{A\x8fhV<@'
p525
tp526
Rp527
ag45
(g49
S'\x88R\x0cyK\x863@'
p528
tp529
Rp530
ag45
(g49
S'\x83\xe9\xc5i\xb6ZE@'
p531
tp532
Rp533
ag45
(g49
S'@K\xf9m\xc3\xca?@'
p534
tp535
Rp536
ag45
(g49
S'\x17\xa1U\xfb\x03-*@'
p537
tp538
Rp539
asI5
(lp540
g45
(g49
S'\xa0\r\x7f\x9bq\x7fC@'
p541
tp542
Rp543
ag45
(g49
S'\xe64c/\x13;C@'
p544
tp545
Rp546
ag45
(g49
S'\xea\xd9\x80y\x90\xfbE@'
p547
tp548
Rp549
ag45
(g49
S'\xccI\x1b\xdf\xf8\x8fE@'
p550
tp551
Rp552
ag45
(g49
S'O\xfeWSv\xd03@'
p553
tp554
Rp555
ag45
(g49
S'\xe4"\te\x07\xf7A@'
p556
tp557
Rp558
ag45
(g49
S'\x9e\xa4\x86i\xd1\x8bD@'
p559
tp560
Rp561
ag45
(g49
S'K\xe8\x16\x16\xea\xce?@'
p562
tp563
Rp564
ag45
(g49
S'\x89\x80\xf3L\xd0\xeaA@'
p565
tp566
Rp567
ag45
(g49
S'\x887G\x7f\x1bV@@'
p568
tp569
Rp570
ag45
(g49
S'd\x89\x88\xb2o^B@'
p571
tp572
Rp573
ag45
(g49
S'\xce(Z\x1c2\x18;@'
p574
tp575
Rp576
ag45
(g49
S'\xe9&\xb8\x93\xd1\xd5C@'
p577
tp578
Rp579
ag45
(g49
S'\xf7TQ\x13y\xb4C@'
p580
tp581
Rp582
ag45
(g49
S'\xe8\xa9\xe5\x14_?E@'
p583
tp584
Rp585
ag45
(g49
S"\xf2'(Az\xe6C@"
p586
tp587
Rp588
ag45
(g49
S'[3\xb2\xa9\xf2\xfe!@'
p589
tp590
Rp591
ag45
(g49
S'\xbeM]\x9a\r\x04<@'
p592
tp593
Rp594
ag45
(g49
S'\t\x98@\xe9P^D@'
p595
tp596
Rp597
ag45
(g49
S'\x01\xde\xec\xef\x8a\x95E@'
p598
tp599
Rp600
asI8
(lp601
g45
(g49
S'\xfcwP\xd3lv@@'
p602
tp603
Rp604
ag45
(g49
S'\xc1\x18\xdb+\xa1dB@'
p605
tp606
Rp607
ag45
(g49
S'\tjJ\xd8>e=@'
p608
tp609
Rp610
ag45
(g49
S'K\xba\x98\xf1\xc6jE@'
p611
tp612
Rp613
ag45
(g49
S'\xeb\x86\xb7B\x9a\xf3A@'
p614
tp615
Rp616
ag45
(g49
S')-\x7f\x9f\xed79@'
p617
tp618
Rp619
ag45
(g49
S'\x94\x0f\xa2\xb4\xbc\xc8@@'
p620
tp621
Rp622
ag45
(g49
S'I\x8a\xb4P"\xdeF@'
p623
tp624
Rp625
ag45
(g49
S'[\x85\xd2\x03\x90\xaf:@'
p626
tp627
Rp628
ag45
(g49
S'-\xa3\x0f(\xed\xf4I@'
p629
tp630
Rp631
ag45
(g49
S'\xf9\xd6l\x10)j>@'
p632
tp633
Rp634
ag45
(g49
S'> \r\xe9\xb1\xdbC@'
p635
tp636
Rp637
ag45
(g49
S'\xb9v\x17\t5\x16;@'
p638
tp639
Rp640
ag45
(g49
S'E\x06}\x97Dw>@'
p641
tp642
Rp643
ag45
(g49
S'\xfe\xa2.{A\xf1A@'
p644
tp645
Rp646
ag45
(g49
S'm\x90\xd9c\xa4\xf51@'
p647
tp648
Rp649
ag45
(g49
S'\x86\x8c\xa2\xa4\xbe\xacG@'
p650
tp651
Rp652
ag45
(g49
S'\x98(\\\x0f\xbb#:@'
p653
tp654
Rp655
ag45
(g49
S'\x88\xf20\xe0G\xc72@'
p656
tp657
Rp658
ag45
(g49
S';\xad\x98\x8c\x1d\xd52@'
p659
tp660
Rp661
asI10
(lp662
g45
(g49
S'\x81\xfe\x8f:e\xaaD@'
p663
tp664
Rp665
ag45
(g49
S'w-\x95:\x05\xe4D@'
p666
tp667
Rp668
ag45
(g49
S'&\xee\x0b=\x03\x0fD@'
p669
tp670
Rp671
ag45
(g49
S'\xe9A\xfdJ!m7@'
p672
tp673
Rp674
ag45
(g49
S'\xe5\xb8\x12\xc70\x19I@'
p675
tp676
Rp677
ag45
(g49
S'\x0b\x93M\x7f\xd19@@'
p678
tp679
Rp680
ag45
(g49
S'\xc3\x9e\x87m\x9b%E@'
p681
tp682
Rp683
ag45
(g49
S'\n\xd9\xc6=\x82\xfaE@'
p684
tp685
Rp686
ag45
(g49
S'\\\x90B\xeb=$E@'
p687
tp688
Rp689
ag45
(g49
S'_t\xcb\xa8\xdb8C@'
p690
tp691
Rp692
ag45
(g49
S'\x83\x18\x9el-<E@'
p693
tp694
Rp695
ag45
(g49
S'@8\x8e\xf6\xfd\xf2B@'
p696
tp697
Rp698
ag45
(g49
S'\xcf\xa8\xe5\xc0\x10q<@'
p699
tp700
Rp701
ag45
(g49
S'\x15\xf5\x17\x03/WI@'
p702
tp703
Rp704
ag45
(g49
S'p\x9e\x86\xe9\x8a\x10@@'
p705
tp706
Rp707
ag45
(g49
S'\x0e\x1cd\xf1#8>@'
p708
tp709
Rp710
ag45
(g49
S'$\xdb/A6$:@'
p711
tp712
Rp713
ag45
(g49
S'BR\xd7\x83j\x11J@'
p714
tp715
Rp716
ag45
(g49
S'\x92\x1a7CIQC@'
p717
tp718
Rp719
ag45
(g49
S'\xd4\xf2u\x8c\xd3\xae=@'
p720
tp721
Rp722
asI20
(lp723
g45
(g49
S'l\xf2\x11=\xaa\xb5C@'
p724
tp725
Rp726
ag45
(g49
S'\xc4H\x02k\xa6\x8aF@'
p727
tp728
Rp729
ag45
(g49
S'l2\x9eD\x13gA@'
p730
tp731
Rp732
ag45
(g49
S'\x98\xaf\xe0\xa5qfE@'
p733
tp734
Rp735
ag45
(g49
S'5\xedY\xd8\xf6\xa1@@'
p736
tp737
Rp738
ag45
(g49
S'\xa5\x08O-\x8b,G@'
p739
tp740
Rp741
ag45
(g49
S'\xb5\xa1i\x1dK|G@'
p742
tp743
Rp744
ag45
(g49
S'\x85\xfb\xca\x97\x80\xfdC@'
p745
tp746
Rp747
ag45
(g49
S'\xdd\xaf\x90t\x99\xd4>@'
p748
tp749
Rp750
ag45
(g49
S"\nu'<Ox7@"
p751
tp752
Rp753
ag45
(g49
S'gn,wH\x1eB@'
p754
tp755
Rp756
ag45
(g49
S'Y\x02\xda1.\xb6;@'
p757
tp758
Rp759
ag45
(g49
S'\x83\xb9\x15\xeaU\x8eD@'
p760
tp761
Rp762
ag45
(g49
S'\x87v9\x97\x9c\xd2D@'
p763
tp764
Rp765
ag45
(g49
S'\xa5\x95\x14h\x9ddB@'
p766
tp767
Rp768
ag45
(g49
S'\xa3\x14\xb0\x8d\x15BG@'
p769
tp770
Rp771
ag45
(g49
S'\xb2\x0c\xb2\xe8\xf4\xa2H@'
p772
tp773
Rp774
ag45
(g49
S'\xaa\xc1bS2\xacB@'
p775
tp776
Rp777
ag45
(g49
S'I\xce\\\xf5\xe0\x932@'
p778
tp779
Rp780
ag45
(g49
S'/\xef\xab\xe5\x9b-C@'
p781
tp782
Rp783
assg14
(dp784
I1
(lp785
g45
(g49
S'\xf3P\x05\xdb$\xaa\x1fA'
p786
tp787
Rp788
ag45
(g49
S'^\x10\xe8j\x02\xfc\x1fA'
p789
tp790
Rp791
ag45
(g49
S'?\xa1;q\x82$ A'
p792
tp793
Rp794
ag45
(g49
S'Y9\x86\xa7\xc9\xdc\x1eA'
p795
tp796
Rp797
ag45
(g49
S'2\xf7\x1aI\x98N\x1fA'
p798
tp799
Rp800
ag45
(g49
S'\x11\x8d\xa0\x04\xb5\xaf\x1fA'
p801
tp802
Rp803
ag45
(g49
S'\x04\x99\x17@!) A'
p804
tp805
Rp806
ag45
(g49
S'\xad\xea\xe4\xd3\x1c8\x1fA'
p807
tp808
Rp809
ag45
(g49
S'$i\xc0\x85-\xba\x1fA'
p810
tp811
Rp812
ag45
(g49
S'\xfe\x86\xf8\x9e\x13\xd1\x1eA'
p813
tp814
Rp815
ag45
(g49
S'\xe7\x8e\xf0Hdt\x1fA'
p816
tp817
Rp818
ag45
(g49
S'PL\x9a\xdf\xab- A'
p819
tp820
Rp821
ag45
(g49
S'\x08\xbdZ\xd0\x0c7\x1fA'
p822
tp823
Rp824
ag45
(g49
S'_p\xa1h\x11\x15\x1fA'
p825
tp826
Rp827
ag45
(g49
S'B\xbaJ\xd3\x0ck\x1fA'
p828
tp829
Rp830
ag45
(g49
S"Nf\xf1'\x11\x0e A"
p831
tp832
Rp833
ag45
(g49
S'\xee\x8b\x8b\xba~\xd4\x1fA'
p834
tp835
Rp836
ag45
(g49
S'\xc4\xcc*\xc5(* A'
p837
tp838
Rp839
ag45
(g49
S'\x9d\x8b\x7f.\xdc\x17\x1eA'
p840
tp841
Rp842
ag45
(g49
S'ufc=@$ A'
p843
tp844
Rp845
asI2
(lp846
g45
(g49
S'\xdb\xd2u\xe4\xc4\xae\x1fA'
p847
tp848
Rp849
ag45
(g49
S'6JD\xaf\x04\xe3\x1eA'
p850
tp851
Rp852
ag45
(g49
S'\xe5\xc4\xd1M\x1c\xd0\x1fA'
p853
tp854
Rp855
ag45
(g49
S"\xb4P\xdec'\xca\x1eA"
p856
tp857
Rp858
ag45
(g49
S'oV\\\x9b\xfd0 A'
p859
tp860
Rp861
ag45
(g49
S'\x9b\x90\x03H_\x08 A'
p862
tp863
Rp864
ag45
(g49
S'\x81#\xe2\\}/\x1fA'
p865
tp866
Rp867
ag45
(g49
S',v\xa5\xe0\xf7\x91\x1fA'
p868
tp869
Rp870
ag45
(g49
S'YQ\xce\xc2I\xf2\x1dA'
p871
tp872
Rp873
ag45
(g49
S"e\xab\xf98'\x1b A"
p874
tp875
Rp876
ag45
(g49
S'\xe4\xb3\x17\xfb\x1bb\x1fA'
p877
tp878
Rp879
ag45
(g49
S'\xdb?\x08\xb2\xdf\xa9\x1fA'
p880
tp881
Rp882
ag45
(g49
S'm\xfc\xb8\x8e\xad\xc8\x1fA'
p883
tp884
Rp885
ag45
(g49
S'GTd\x1fw\xd7\x1fA'
p886
tp887
Rp888
ag45
(g49
S'\x1f\xc8\xb2|\x89\xd5\x1eA'
p889
tp890
Rp891
ag45
(g49
S'\x99:\xf9\xfb\n\x9c\x1eA'
p892
tp893
Rp894
ag45
(g49
S'G\xfb\x99\x88\xc1\x84\x1fA'
p895
tp896
Rp897
ag45
(g49
S'\xf2\x83\xa8\x02\x80\x04\x1fA'
p898
tp899
Rp900
ag45
(g49
S'c\xbdo9|\x95\x1fA'
p901
tp902
Rp903
ag45
(g49
S'\xc3*:\xcf\xf6\xf2\x1fA'
p904
tp905
Rp906
asI5
(lp907
g45
(g49
S'\xc0\xc3sm\xcf\xad\x1fA'
p908
tp909
Rp910
ag45
(g49
S'\xba\x8b\xe3\xa9eP\x1fA'
p911
tp912
Rp913
ag45
(g49
S'O\x08\x06B\xd3\x04\x1fA'
p914
tp915
Rp916
ag45
(g49
S'V\xbdh\xb7\xbat\x1eA'
p917
tp918
Rp919
ag45
(g49
S'\xd2\xc3\x90\xe3@@\x1eA'
p920
tp921
Rp922
ag45
(g49
S'\x9a|\x03-\xc4N\x1fA'
p923
tp924
Rp925
ag45
(g49
S'\x93\x8bg\xdfO\x7f\x1fA'
p926
tp927
Rp928
ag45
(g49
S'(\xda\xcf\xb8\xde\xda\x1fA'
p929
tp930
Rp931
ag45
(g49
S'\xd5\x85,\x9d\xe7\xe0\x1eA'
p932
tp933
Rp934
ag45
(g49
S'\xbb\xd1Tc.N\x1eA'
p935
tp936
Rp937
ag45
(g49
S'\x0ba\x1e\x89\xaf\xa3\x1eA'
p938
tp939
Rp940
ag45
(g49
S'3`\xc0\x08E\x87\x1eA'
p941
tp942
Rp943
ag45
(g49
S'\xf6\xa7\x0f\x8f5\xea\x1eA'
p944
tp945
Rp946
ag45
(g49
S'\xcc\x99\xeb(T*\x1dA'
p947
tp948
Rp949
ag45
(g49
S'\xc3]v\x97-x\x1eA'
p950
tp951
Rp952
ag45
(g49
S'{3V\tLO\x1fA'
p953
tp954
Rp955
ag45
(g49
S'l\x86R\xd5E\xf6\x1eA'
p956
tp957
Rp958
ag45
(g49
S'w+\xfaj \x0f\x1fA'
p959
tp960
Rp961
ag45
(g49
S'\xcb(\xc0Y\xf9\xe7\x1eA'
p962
tp963
Rp964
ag45
(g49
S'\xfd\r\xfb\xa5x\x14\x1fA'
p965
tp966
Rp967
asI8
(lp968
g45
(g49
S'\x0e\xf9Uc\xb5\xd5\x1eA'
p969
tp970
Rp971
ag45
(g49
S'\xb2\x9b\xcb\x18V4\x1fA'
p972
tp973
Rp974
ag45
(g49
S'(\xf6I\xb2\xc0\xc7\x1eA'
p975
tp976
Rp977
ag45
(g49
S'+\\\xdd<\xa4t\x1eA'
p978
tp979
Rp980
ag45
(g49
S'\xb08QM"\xc4\x1eA'
p981
tp982
Rp983
ag45
(g49
S'\x0eA\xbdH\x13\xb8\x1eA'
p984
tp985
Rp986
ag45
(g49
S'\x11\xe1\xe8j\xaf\xe1\x1eA'
p987
tp988
Rp989
ag45
(g49
S'U\x0fn\r2E\x1eA'
p990
tp991
Rp992
ag45
(g49
S'>\xf5\x97\xec9\xa2\x1eA'
p993
tp994
Rp995
ag45
(g49
S'\x1a\xb3\x19\xa9?\x0c\x1fA'
p996
tp997
Rp998
ag45
(g49
S'=\x98\x15\xach\xf7\x1dA'
p999
tp1000
Rp1001
ag45
(g49
S'\xaf\xbf\x06YZ2\x1fA'
p1002
tp1003
Rp1004
ag45
(g49
S'\xcb\x17a\xc7\xfeJ\x1fA'
p1005
tp1006
Rp1007
ag45
(g49
S':\xdc\xa1\x14f\xd4\x1eA'
p1008
tp1009
Rp1010
ag45
(g49
S'\xca2\x15S\xf1J\x1fA'
p1011
tp1012
Rp1013
ag45
(g49
S'\xde\xadc\x17\xe0\xe6\x1eA'
p1014
tp1015
Rp1016
ag45
(g49
S'o\xb2\xd0\xc5\xb4\xb1\x1eA'
p1017
tp1018
Rp1019
ag45
(g49
S'\xf7h7\xc78\x8c\x1fA'
p1020
tp1021
Rp1022
ag45
(g49
S'U&\x80\xf1*\xd6\x1eA'
p1023
tp1024
Rp1025
ag45
(g49
S'\xcaq|\xd5\x89\xc0\x1eA'
p1026
tp1027
Rp1028
asI10
(lp1029
g45
(g49
S'`\x8c\x9d\x0c\x18\x0f\x1fA'
p1030
tp1031
Rp1032
ag45
(g49
S'K\xec\ta\xf6\xd4\x1eA'
p1033
tp1034
Rp1035
ag45
(g49
S'\xd8}\x1c\xe0\x18\xda\x1eA'
p1036
tp1037
Rp1038
ag45
(g49
S"\x97\x07+Dh'\x1eA"
p1039
tp1040
Rp1041
ag45
(g49
S'\xea\xd1g\x14\xe9\xe6\x1dA'
p1042
tp1043
Rp1044
ag45
(g49
S'\x17\xbbs\x11\x02\xa1\x1eA'
p1045
tp1046
Rp1047
ag45
(g49
S'<,\xfe\x9e\xe8\xc3\x1eA'
p1048
tp1049
Rp1050
ag45
(g49
S'\xdekE\xe9\xf4\xb8\x1eA'
p1051
tp1052
Rp1053
ag45
(g49
S'\xbf\x12\xe9+\\\xa0\x1eA'
p1054
tp1055
Rp1056
ag45
(g49
S'\xc5\x0b\xdc*/\x19\x1eA'
p1057
tp1058
Rp1059
ag45
(g49
S'\xc4\x0e\xfa\xc72\xe1\x1eA'
p1060
tp1061
Rp1062
ag45
(g49
S'F.\xb4\x1c(\x10\x1fA'
p1063
tp1064
Rp1065
ag45
(g49
S'D\xbc9\xfd\xa0\xc3\x1eA'
p1066
tp1067
Rp1068
ag45
(g49
S'^\x89\x01\x19\xc1j\x1eA'
p1069
tp1070
Rp1071
ag45
(g49
S'M\xc2\xce\t\x92\xa5\x1eA'
p1072
tp1073
Rp1074
ag45
(g49
S'\xbe\xe8s\xaf\x14\xbc\x1eA'
p1075
tp1076
Rp1077
ag45
(g49
S'\xadb1\xa3\xa3\xf3\x1eA'
p1078
tp1079
Rp1080
ag45
(g49
S'\xbe\xc4\x12\x99\x03u\x1eA'
p1081
tp1082
Rp1083
ag45
(g49
S',y\xf0\x13\xa3\xab\x1eA'
p1084
tp1085
Rp1086
ag45
(g49
S'\xb8\xb1\xf74\xf0T\x1eA'
p1087
tp1088
Rp1089
asI20
(lp1090
g45
(g49
S'\x17Q\x86\xb1*\xce\x1dA'
p1091
tp1092
Rp1093
ag45
(g49
S'X\xe9\xef!-s\x1eA'
p1094
tp1095
Rp1096
ag45
(g49
S'\x83\x89\x95I\x7fw\x1eA'
p1097
tp1098
Rp1099
ag45
(g49
S'\xcf\xb2T\xb4\xc4q\x1eA'
p1100
tp1101
Rp1102
ag45
(g49
S'w\xaf\xa5\x8b\xa8\x95\x1eA'
p1103
tp1104
Rp1105
ag45
(g49
S'\xba]&O\x12\xb1\x1dA'
p1106
tp1107
Rp1108
ag45
(g49
S'Y\x9c\x8e\xday\x0e\x1eA'
p1109
tp1110
Rp1111
ag45
(g49
S'\xab\x1a\xcd\x1a\r\x8f\x1eA'
p1112
tp1113
Rp1114
ag45
(g49
S'\xd6`\xf1\xf0\xf4\x03\x1eA'
p1115
tp1116
Rp1117
ag45
(g49
S',\xf8S\xfa/\xe8\x1eA'
p1118
tp1119
Rp1120
ag45
(g49
S'.O\xa2h\x08A\x1eA'
p1121
tp1122
Rp1123
ag45
(g49
S'`Ii>\xfe\xb1\x1eA'
p1124
tp1125
Rp1126
ag45
(g49
S'\x02V#\xb0\x8a$\x1eA'
p1127
tp1128
Rp1129
ag45
(g49
S'u\x01$\xdf\x0ef\x1eA'
p1130
tp1131
Rp1132
ag45
(g49
S'6\x83\x1a\xd7\xf8\xbb\x1dA'
p1133
tp1134
Rp1135
ag45
(g49
S'+\x17x\x8a*l\x1eA'
p1136
tp1137
Rp1138
ag45
(g49
S'H\xce?\xee\xad7\x1eA'
p1139
tp1140
Rp1141
ag45
(g49
S'V \x88\xd9B\xef\x1dA'
p1142
tp1143
Rp1144
ag45
(g49
S'E\x17\xb5\xaa7\x8a\x1eA'
p1145
tp1146
Rp1147
ag45
(g49
S'\xde\x98\x1d\x94\x1ag\x1eA'
p1148
tp1149
Rp1150
asssI2
(dp1151
g13
(dp1152
I1
(lp1153
F511596.6389882881
aF428323.1287998538
aF324588.7315943145
aF268422.61750719254
aF466627.359345004
aF352118.0333280301
aF360842.7853210473
aF465550.17918353697
aF476912.99613215064
aF281402.8340015326
aF493547.42366645037
aF400260.6752115256
aF527981.3204794449
aF409756.4485091494
aF347108.61054120096
aF504153.3282763356
aF419761.40898928884
aF425656.2175299938
aF443955.41369349975
aF338928.0746747176
asI2
(lp1154
F671531.2287935924
aF360605.8967747168
aF464134.426064044
aF539033.2858575811
aF444904.92132391053
aF365893.4629264019
aF636693.9048431555
aF524609.5826834415
aF308363.75735254795
aF537431.7532220959
aF417030.35029700334
aF214851.12233706852
aF487427.3681801601
aF743221.2463504109
aF541445.4277504955
aF448473.62481130945
aF636393.7728360326
aF500949.8756260898
aF663364.813867875
aF477543.22255736194
asI5
(lp1155
F325206.66548334283
aF224561.38474868628
aF269933.01455764944
aF249035.07499328261
aF156235.944896304
aF169743.7089813201
aF205990.5161543532
aF89888.05668081048
aF150911.1350899701
aF195397.861293857
aF281864.2079485236
aF294938.92522623664
aF232190.70193873838
aF129558.09050254435
aF226842.02914734854
aF48347.171589241334
aF264526.91066826455
aF276399.01757721795
aF237621.7368549013
aF133249.5294676334
asI8
(lp1156
F319325.9036766851
aF322024.6488174046
aF189297.7084098563
aF237364.5542458485
aF259476.6712625065
aF276489.17071576626
aF290724.4890872108
aF477060.2934951388
aF134654.3359341809
aF194737.53182457775
aF228097.9889314148
aF104339.57432146173
aF278172.6460330185
aF389027.92025557277
aF248409.37584662624
aF436239.5036335112
aF223745.3095682077
aF193865.6112943467
aF157647.0644555524
aF339634.71082167386
asI10
(lp1157
F261577.23423891293
aF335322.7988071507
aF178099.18949123795
aF186204.8876582876
aF185896.0521115323
aF289985.24120740255
aF266147.5353562559
aF334970.0293149057
aF199583.8902627268
aF240371.0510100364
aF169788.51030308672
aF278265.417497766
aF198510.42183326348
aF407503.4925261204
aF195279.02490782415
aF267473.85086656373
aF306812.7844705861
aF172915.33730316168
aF221980.11797208604
aF294954.3331479542
asI20
(lp1158
F102908.38249392016
aF129003.27469470937
aF182548.56058702327
aF222518.1433625533
aF96281.38856039167
aF144488.14110626804
aF196280.62117515985
aF164693.21547129657
aF153736.6442125926
aF144423.07999192606
aF177059.3924142888
aF68636.61486341302
aF137065.0045058195
aF157855.0309217614
aF156954.31770496076
aF148381.695539954
aF216010.88869260304
aF127689.6364719974
aF154921.2941974869
aF146051.7230882478
assg15
(dp1159
I1
(lp1160
F63337.47421784801
aF63141.25308138934
aF75616.95883891487
aF53608.69341289569
aF81451.3127872049
aF42893.250687596694
aF78197.50315685829
aF31679.85571948526
aF67762.82325926835
aF67944.97314205774
aF66532.5118402089
aF59231.552880633746
aF46619.55924170034
aF68457.26536421943
aF60254.65314395006
aF67160.43889720853
aF36019.652881894806
aF67638.03421171008
aF32214.857645210497
aF60380.843605832604
asI2
(lp1161
F152300.964400919
aF157439.72194254978
aF154925.30588691338
aF179587.15715274337
aF166660.88381091045
aF140040.39975309174
aF88378.85969527262
aF135040.67718253733
aF172492.62490762814
aF96403.47271931374
aF112464.18281943128
aF159149.26355301047
aF76306.55793455771
aF154389.09684379274
aF140082.8828016048
aF140195.5448226916
aF159043.24954203388
aF101590.8230451677
aF171433.91655236488
aF149550.89470440516
asI5
(lp1162
F61394.99134286963
aF59830.585453290325
aF51957.21066580973
aF69690.8266202605
aF57199.84924624358
aF55072.020620996496
aF42115.76687257676
aF39079.333930442015
aF77152.3743138685
aF62866.392523505056
aF50089.96024087173
aF57104.10308838888
aF76050.69172903523
aF66927.12290669109
aF47031.74961214899
aF64505.496984759586
aF61854.360358879094
aF62425.23478023501
aF75444.11841109865
aF47059.84663711791
asI8
(lp1163
F95433.10990706432
aF79425.06068113663
aF66214.66583576778
aF87760.40798804471
aF68682.68873545327
aF84781.50972715544
aF79594.30648582139
aF72602.9361720328
aF74309.46612136267
aF28877.862021804573
aF54742.793519803854
aF62028.70274085233
aF84461.83260262158
aF69197.90822784451
aF40001.75325686175
aF88178.77094545357
aF99819.51299371124
aF67525.35523447514
aF64645.12995799742
aF80530.38926672937
asI10
(lp1164
F80833.37277655264
aF77400.20191387429
aF55511.64418993179
aF98496.13943262247
aF54822.227036507364
aF66575.51970665372
aF65850.07451545348
aF93451.93052910647
aF97173.14009489033
aF68727.27818317163
aF91650.46670471209
aF111918.91057578099
aF73209.47715561965
aF59652.01768380918
aF90191.31317072616
aF113330.05271382145
aF87928.85528175476
aF83425.65656144386
aF59023.644681851256
aF61802.4252353964
asI20
(lp1165
F52453.89389399892
aF62909.18717913636
aF64495.098014225565
aF68098.31166824969
aF69583.21641602318
aF26043.099606658085
aF51623.11770459376
aF73495.06954428022
aF66920.26871107784
aF56107.03367342286
aF50860.85705012602
aF52890.156710989024
aF68170.69478997377
aF57044.49345738186
aF44259.82339385953
aF66933.54795272545
aF57125.203976224446
aF52461.64944527606
aF54975.437941219585
aF57814.93984951491
assg14
(dp1166
I1
(lp1167
F565171.1481758166
aF570576.5828188758
aF569164.6734348496
aF569762.1135586728
aF570470.3338036346
aF561249.955953889
aF571187.9746843904
aF570796.7665837087
aF571266.4882225977
aF574806.9817478827
aF572307.8152754116
aF575643.801029314
aF565489.5731908763
aF573767.2024047481
aF571092.840368943
aF571981.1215282631
aF572260.6782505678
aF573656.4574879344
aF575170.2486423725
aF569967.4233949487
asI2
(lp1168
F1001334.6382163843
aF995278.7897065588
aF999385.7929949204
aF999846.8199883115
aF992226.7614962965
aF996600.8795909653
aF986993.0256506037
aF993977.0004168195
aF990721.2466198194
aF997665.5916117427
aF989891.5500797571
aF995411.2145129095
aF996993.2757046558
aF993910.2196326472
aF999308.5636918894
aF989292.5722641516
aF989998.69785457
aF993609.7388638122
aF998657.5138146234
aF995919.516518209
asI5
(lp1169
F574593.1579706845
aF581704.3880067071
aF581561.0202837941
aF576640.6692109876
aF579744.6212901719
aF586173.2664870119
aF572078.1289597275
aF575772.5485871625
aF582310.5184551995
aF582173.2171501978
aF580704.3859207121
aF575498.7001434999
aF573020.6326486777
aF580259.6504185406
aF572624.0055730686
aF583106.3552804067
aF584835.5322306219
aF581144.1598083378
aF571766.1756959195
aF579996.39005922
asI8
(lp1170
F820626.994374391
aF825062.0648861363
aF818852.0120278562
aF826163.0593664107
aF815863.8250330773
aF822245.5781266857
aF811536.1256130052
aF815763.3654058701
aF824586.2064137366
aF824110.5618800478
aF819843.891966865
aF825549.7491979855
aF816884.4381257026
aF818692.566711721
aF824001.6008819584
aF818522.806018693
aF821382.3777203724
aF822499.5050471901
aF822623.429491824
aF822842.5394216783
asI10
(lp1171
F1026735.7064649723
aF1029936.781961357
aF1026095.1035816779
aF1026345.2405549623
aF1030584.2098320369
aF1025104.0631881347
aF1011282.9384661877
aF1024549.8460734008
aF1025080.5856979655
aF1011679.5497473996
aF1024753.4934318331
aF1019352.6733826888
aF1027970.3952986302
aF1024692.1087186739
aF1025430.0925013012
aF1025534.1975451056
aF1023758.7595627053
aF1018325.1191606421
aF1025546.969608254
aF1027103.643224424
asI20
(lp1172
F443351.78453395976
aF444255.7483445074
aF437913.5886032579
aF441712.92160182237
aF444817.82059134886
aF436925.257340093
aF444983.4404782767
aF439120.9752399827
aF445328.6693942656
aF442599.58670329646
aF439477.32776296255
aF443861.9614587556
aF437531.7671750921
aF445371.0034329751
aF445530.1223554899
aF443462.74847494496
aF441270.78225529514
aF442963.05295974924
aF444934.53057538153
aF446110.6755399078
asssI6
(dp1173
g13
(dp1174
I1
(lp1175
g45
(g49
S'\x19\x83\x8c!\xa5\xf9!@'
p1176
tp1177
Rp1178
ag45
(g49
S'\x8e\x0f\x1da\xe6\xf7!@'
p1179
tp1180
Rp1181
ag45
(g49
S"\xc3p\x02>'\xdc!@"
p1182
tp1183
Rp1184
ag45
(g49
S'\xdc\x96\xe9\xe6\x8c\xf7!@'
p1185
tp1186
Rp1187
ag45
(g49
S'r\xe6<]\x97\xf7!@'
p1188
tp1189
Rp1190
ag45
(g49
S'c\xc3\xcb\xe1%\xfa!@'
p1191
tp1192
Rp1193
ag45
(g49
S'<\xa8\xba\x86\xcf\xfe!@'
p1194
tp1195
Rp1196
ag45
(g49
S'\xa0Gp\x85\x08\xfb!@'
p1197
tp1198
Rp1199
ag45
(g49
S'\xe4l\x9aw\xfc\xf9!@'
p1200
tp1201
Rp1202
ag45
(g49
S'\x92\xa0%;+\xf8!@'
p1203
tp1204
Rp1205
ag45
(g49
S'6\x9c8\x12\xe5\xf4!@'
p1206
tp1207
Rp1208
ag45
(g49
S'X\xb6\xd8\x11\xbc\xef!@'
p1209
tp1210
Rp1211
ag45
(g49
S'\x8bL%W\n\xf4!@'
p1212
tp1213
Rp1214
ag45
(g49
S'w\xd05\xb2\xfe\xee!@'
p1215
tp1216
Rp1217
ag45
(g49
S'\xff\x01\xa7i\x82\xf5!@'
p1218
tp1219
Rp1220
ag45
(g49
S'\x1b\xfc\xbfV0\xfa!@'
p1221
tp1222
Rp1223
ag45
(g49
S'\x93\xf0;KZ\xf2!@'
p1224
tp1225
Rp1226
ag45
(g49
S'\xc0\xd4\xa6\xd5R\xfb!@'
p1227
tp1228
Rp1229
ag45
(g49
S'\xf2\xa0\tl\x0f\xfc!@'
p1230
tp1231
Rp1232
ag45
(g49
S'\x07FW\x1f"\xfc!@'
p1233
tp1234
Rp1235
asI2
(lp1236
g45
(g49
S'\xd4\xbc\x82\x90P\xea!@'
p1237
tp1238
Rp1239
ag45
(g49
S'~\x9b\xc6\xea\x94\xed!@'
p1240
tp1241
Rp1242
ag45
(g49
S'\xe11M\xc5\xab\xfe!@'
p1243
tp1244
Rp1245
ag45
(g49
S'\xa3\x81\x0cZ\xd5\xf9!@'
p1246
tp1247
Rp1248
ag45
(g49
S'+vME\xf6\xf0!@'
p1249
tp1250
Rp1251
ag45
(g49
S'O\xe8\x91\xd9\xdb\xe4!@'
p1252
tp1253
Rp1254
ag45
(g49
S'h\xce"\xfbW\xee!@'
p1255
tp1256
Rp1257
ag45
(g49
S'\xb7|\x98\x07\xbf\xec!@'
p1258
tp1259
Rp1260
ag45
(g49
S'\xce\x9f\xa9\x8a\x19\xed!@'
p1261
tp1262
Rp1263
ag45
(g49
S'\x10\x92,!s\xfb!@'
p1264
tp1265
Rp1266
ag45
(g49
S'1\xbcP\x84\xc0\xf7!@'
p1267
tp1268
Rp1269
ag45
(g49
S'\x7fa.p\xe5\xf9!@'
p1270
tp1271
Rp1272
ag45
(g49
S'\x18`z\x1aB\xfa!@'
p1273
tp1274
Rp1275
ag45
(g49
S'"\xeb\x9c\x12\xb0\xf7!@'
p1276
tp1277
Rp1278
ag45
(g49
S'\x9d\x9b\xb9N\x14\xf6!@'
p1279
tp1280
Rp1281
ag45
(g49
S'$\xec\xc9?\xcd\xf4!@'
p1282
tp1283
Rp1284
ag45
(g49
S'\x88\xd9\xeae\xfb\xf4!@'
p1285
tp1286
Rp1287
ag45
(g49
S'R\xf2\xbc\x99\x07\xed!@'
p1288
tp1289
Rp1290
ag45
(g49
S'\x12\xd7\xdag/\xf5!@'
p1291
tp1292
Rp1293
ag45
(g49
S'\xdf\xab\xfe\xef\x15\xf3!@'
p1294
tp1295
Rp1296
asI5
(lp1297
g45
(g49
S'S\xde\xcc\xc8C\xed!@'
p1298
tp1299
Rp1300
ag45
(g49
S'\xfc\\\xd3\xdc\x9e\xe2!@'
p1301
tp1302
Rp1303
ag45
(g49
S'\xae\x9e\x0cn\xb4\xee!@'
p1304
tp1305
Rp1306
ag45
(g49
S'\xda\xd7\x89\x1f\xf9\xe9!@'
p1307
tp1308
Rp1309
ag45
(g49
S'Gs\xa3ce\xd0!@'
p1310
tp1311
Rp1312
ag45
(g49
S'\xa0\x17\xe5x\xf8\xe7!@'
p1313
tp1314
Rp1315
ag45
(g49
S'F\n\x15\xee0\xf7!@'
p1316
tp1317
Rp1318
ag45
(g49
S'\xe2\xbd\xb9\x8e\xec\xe4!@'
p1319
tp1320
Rp1321
ag45
(g49
S'\x91Zo\x8e\x10\xed!@'
p1322
tp1323
Rp1324
ag45
(g49
S'^Y\xc7H\xdd\xea!@'
p1325
tp1326
Rp1327
ag45
(g49
S'\xf4\xdd\x1fS@\xdb!@'
p1328
tp1329
Rp1330
ag45
(g49
S'/\xef\xef\x8eA\xf1!@'
p1331
tp1332
Rp1333
ag45
(g49
S'\x8e\x96\x8b\xb1K\xf3!@'
p1334
tp1335
Rp1336
ag45
(g49
S'\xdaj\xe6\xc6\xf8\xec!@'
p1337
tp1338
Rp1339
ag45
(g49
S'\x9b\xed\xa4\x8e\xba\xea!@'
p1340
tp1341
Rp1342
ag45
(g49
S'\xf6mF\x0e\xdf\xe1!@'
p1343
tp1344
Rp1345
ag45
(g49
S'\xf3\xd4\xf7|F\xf4!@'
p1346
tp1347
Rp1348
ag45
(g49
S'V\x90\xb0Q\xf1\xe0!@'
p1349
tp1350
Rp1351
ag45
(g49
S'ye.CX\xf0!@'
p1352
tp1353
Rp1354
ag45
(g49
S'\xca"Sx\xa4\xec!@'
p1355
tp1356
Rp1357
asI8
(lp1358
g45
(g49
S'n\x0e0\xa1\xf2\xe4!@'
p1359
tp1360
Rp1361
ag45
(g49
S'\xa7`wA\xd3\xe8!@'
p1362
tp1363
Rp1364
ag45
(g49
S'\n\xb3\x02\xd1\xfd\xdd!@'
p1365
tp1366
Rp1367
ag45
(g49
S'\x99nR\xd3\x0b\xeb!@'
p1368
tp1369
Rp1370
ag45
(g49
S'I\x08O\xa7*\xdd!@'
p1371
tp1372
Rp1373
ag45
(g49
S'\xfa=}\x17\x97\xee!@'
p1374
tp1375
Rp1376
ag45
(g49
S"\x1b\xb8\xba'\x15\xdf!@"
p1377
tp1378
Rp1379
ag45
(g49
S'\x95n\xc3\xd4\n\xef!@'
p1380
tp1381
Rp1382
ag45
(g49
S'\xf9-\x98F\x8f\xed!@'
p1383
tp1384
Rp1385
ag45
(g49
S'*M\x97\x85\xe2\xf1!@'
p1386
tp1387
Rp1388
ag45
(g49
S'|\xaf\xb6\xe6y\xe7!@'
p1389
tp1390
Rp1391
ag45
(g49
S'\x90P1e\xf1\xf0!@'
p1392
tp1393
Rp1394
ag45
(g49
S'S5dI\xe8\xe5!@'
p1395
tp1396
Rp1397
ag45
(g49
S'\x1fY\x04\xecH\xf5!@'
p1398
tp1399
Rp1400
ag45
(g49
S'\xd4;\x18\xd8\x19\xe8!@'
p1401
tp1402
Rp1403
ag45
(g49
S'x\x90E\xf3\xaa\xeb!@'
p1404
tp1405
Rp1406
ag45
(g49
S'\x9d\x0b?\xdc\x90\xea!@'
p1407
tp1408
Rp1409
ag45
(g49
S'kV\xf8=\xb0\xec!@'
p1410
tp1411
Rp1412
ag45
(g49
S'\xcfA\x19\xf3j\xdf!@'
p1413
tp1414
Rp1415
ag45
(g49
S'\x90_\x01\x0e\x01\xef!@'
p1416
tp1417
Rp1418
asI10
(lp1419
g45
(g49
S'\xcbh(\xbc\xd1\xee!@'
p1420
tp1421
Rp1422
ag45
(g49
S'\x94P\x8a\x99R\xe8!@'
p1423
tp1424
Rp1425
ag45
(g49
S'\x01\x83n\xfax\xd7!@'
p1426
tp1427
Rp1428
ag45
(g49
S'%\xa5v\x01\x1f\xe9!@'
p1429
tp1430
Rp1431
ag45
(g49
S'r\x9a?\x8e\xc2\xea!@'
p1432
tp1433
Rp1434
ag45
(g49
S'_\x9bZ\x9f\xe4\xdf!@'
p1435
tp1436
Rp1437
ag45
(g49
S'@\x16W\x11\xd3\xee!@'
p1438
tp1439
Rp1440
ag45
(g49
S'\xa2\xa5\x08,\x98\xe1!@'
p1441
tp1442
Rp1443
ag45
(g49
S'\xc6\x01d!!\xe3!@'
p1444
tp1445
Rp1446
ag45
(g49
S'\x03\x85\xc3-,\xee!@'
p1447
tp1448
Rp1449
ag45
(g49
S'N\x8d\xae\x8d\x18\xd5!@'
p1450
tp1451
Rp1452
ag45
(g49
S'\x02\xdf_\xb8\xca\xeb!@'
p1453
tp1454
Rp1455
ag45
(g49
S'\xcf\xcf\xd7\x8dS\xea!@'
p1456
tp1457
Rp1458
ag45
(g49
S'o;\x1c%\xc6\xee!@'
p1459
tp1460
Rp1461
ag45
(g49
S'\x98s\x80\xf9Y\xdf!@'
p1462
tp1463
Rp1464
ag45
(g49
S'\xed\xa8\x7f _\xe6!@'
p1465
tp1466
Rp1467
ag45
(g49
S'\xbe1\xf7]T\xf0!@'
p1468
tp1469
Rp1470
ag45
(g49
S'\xc22\xaa\xd1\x1a\xe6!@'
p1471
tp1472
Rp1473
ag45
(g49
S'PD\xfb\xe8\x93\xdf!@'
p1474
tp1475
Rp1476
ag45
(g49
S'\x88\xc1/\xf8\x0e\xe9!@'
p1477
tp1478
Rp1479
asI20
(lp1480
g45
(g49
S'\x10/\x0f{j\xea!@'
p1481
tp1482
Rp1483
ag45
(g49
S'*)K3\xbb\xe8!@'
p1484
tp1485
Rp1486
ag45
(g49
S'\xb3\xee\x95kL\xea!@'
p1487
tp1488
Rp1489
ag45
(g49
S'P(|\xad\x1a\xe0!@'
p1490
tp1491
Rp1492
ag45
(g49
S'C7\xeb\n\xe1\xef!@'
p1493
tp1494
Rp1495
ag45
(g49
S'3\xf7\x14\xd7s\xe9!@'
p1496
tp1497
Rp1498
ag45
(g49
S'q\xef\xbc\xd3\xe8\xe2!@'
p1499
tp1500
Rp1501
ag45
(g49
S'{\xa8\t\xdf\x8e\xdd!@'
p1502
tp1503
Rp1504
ag45
(g49
S' \xfe\x14\n1\xdd!@'
p1505
tp1506
Rp1507
ag45
(g49
S'\x84i\xfd\x87X\xeb!@'
p1508
tp1509
Rp1510
ag45
(g49
S'?4\xfb\x99[\xe2!@'
p1511
tp1512
Rp1513
ag45
(g49
S'%\xa5\xe2\xd7\x1c\xee!@'
p1514
tp1515
Rp1516
ag45
(g49
S'\xfb\x02\t}\x04\xe7!@'
p1517
tp1518
Rp1519
ag45
(g49
S'\x1f\xbe\x1aU\x89\xe4!@'
p1520
tp1521
Rp1522
ag45
(g49
S'wbw\xd8\xac\xdf!@'
p1523
tp1524
Rp1525
ag45
(g49
S'U$\x9c\x92\xae\xe5!@'
p1526
tp1527
Rp1528
ag45
(g49
S'\x05`\xe9\xc8\x1e\xe1!@'
p1529
tp1530
Rp1531
ag45
(g49
S'\xe2\xacy\x83\x0e\xec!@'
p1532
tp1533
Rp1534
ag45
(g49
S'\xf6\xf0\x078=\xe0!@'
p1535
tp1536
Rp1537
ag45
(g49
S'\xbe\xba\xbb`\x12\xcd!@'
p1538
tp1539
Rp1540
assg15
(dp1541
I1
(lp1542
g45
(g49
S'qoen\xba\xd2!@'
p1543
tp1544
Rp1545
ag45
(g49
S'\x99\x91\x92\xb1\x82\xc9!@'
p1546
tp1547
Rp1548
ag45
(g49
S'#x\x9c\xcb\xda\xd7!@'
p1549
tp1550
Rp1551
ag45
(g49
S'\xech\x8c\x12]\xd7!@'
p1552
tp1553
Rp1554
ag45
(g49
S'8D\xaa\xda\xca\xc7!@'
p1555
tp1556
Rp1557
ag45
(g49
S'"A\xd6 \x0e\xd8!@'
p1558
tp1559
Rp1560
ag45
(g49
S']H\xf9?s\xd3!@'
p1561
tp1562
Rp1563
ag45
(g49
S'X^\x07a]\xd6!@'
p1564
tp1565
Rp1566
ag45
(g49
S'\x14\x13\xab\xfd\xa4\xcb!@'
p1567
tp1568
Rp1569
ag45
(g49
S'\xff`$^<\xda!@'
p1570
tp1571
Rp1572
ag45
(g49
S'\xa2Lv\xef\xb2\xdc!@'
p1573
tp1574
Rp1575
ag45
(g49
S'A\x93\xf2\x9c\xff\xd8!@'
p1576
tp1577
Rp1578
ag45
(g49
S'n;6\x10\xd4\xd8!@'
p1579
tp1580
Rp1581
ag45
(g49
S'w\xed\x0e\xdb\xce\xd4!@'
p1582
tp1583
Rp1584
ag45
(g49
S'ht*V\xdd\xd6!@'
p1585
tp1586
Rp1587
ag45
(g49
S'\xc7gC\xfb\xdf\xd9!@'
p1588
tp1589
Rp1590
ag45
(g49
S"W'\x0bp\x1f\xd6!@"
p1591
tp1592
Rp1593
ag45
(g49
S'f\xf3\xffLf\xc9!@'
p1594
tp1595
Rp1596
ag45
(g49
S'\xb4\xb9\xd3\x87\xb2\xcc!@'
p1597
tp1598
Rp1599
ag45
(g49
S'\xfa\x9d\xfb\x80\xe3\xd0!@'
p1600
tp1601
Rp1602
asI2
(lp1603
g45
(g49
S'\x95\xbc\x0eo\x02\xd2!@'
p1604
tp1605
Rp1606
ag45
(g49
S'\x9d\x8a\x9a\x04\x17\xd9!@'
p1607
tp1608
Rp1609
ag45
(g49
S'\xf37\x0c\x8d\xda\xd8!@'
p1610
tp1611
Rp1612
ag45
(g49
S'G\x087\x07\x1a\xd4!@'
p1613
tp1614
Rp1615
ag45
(g49
S'Z\x83\xcd\xc5G\xd8!@'
p1616
tp1617
Rp1618
ag45
(g49
S'[+\x1d\xce\xa7\xcf!@'
p1619
tp1620
Rp1621
ag45
(g49
S'\xfcT\xb4\x99v\xd7!@'
p1622
tp1623
Rp1624
ag45
(g49
S'\x9f\xd7.\xc1L\xcc!@'
p1625
tp1626
Rp1627
ag45
(g49
S'\xc0\xfd\xc5\xdao\xd8!@'
p1628
tp1629
Rp1630
ag45
(g49
S'\x91g\xc5\x01\x84\xd7!@'
p1631
tp1632
Rp1633
ag45
(g49
S'\xf6\xd0\xecF.\xce!@'
p1634
tp1635
Rp1636
ag45
(g49
S'o]R\x05\x86\xd1!@'
p1637
tp1638
Rp1639
ag45
(g49
S'\xa2T\x03~\xa5\xd8!@'
p1640
tp1641
Rp1642
ag45
(g49
S'?\xdd5\xd1\xb2\xd0!@'
p1643
tp1644
Rp1645
ag45
(g49
S'\xd4\xb4\xec\xd9 \xd8!@'
p1646
tp1647
Rp1648
ag45
(g49
S'\x9e62\x83\n\xd7!@'
p1649
tp1650
Rp1651
ag45
(g49
S'\xceg~\x15%\xd5!@'
p1652
tp1653
Rp1654
ag45
(g49
S'\xaa$\x1d\xbc\xf0\xca!@'
p1655
tp1656
Rp1657
ag45
(g49
S'l\x8d\xfe\x90n\xd5!@'
p1658
tp1659
Rp1660
ag45
(g49
S'l\xeb\xbe\xba\xa6\xdb!@'
p1661
tp1662
Rp1663
asI5
(lp1664
g45
(g49
S'\xd14\xf0o9\xd8!@'
p1665
tp1666
Rp1667
ag45
(g49
S'\xb3\xfe\xb38\xc3\xd7!@'
p1668
tp1669
Rp1670
ag45
(g49
S'\xe8Q\xd4\x9at\xd0!@'
p1671
tp1672
Rp1673
ag45
(g49
S'\xbb\xb2\xa1\x8e\x9e\xd3!@'
p1674
tp1675
Rp1676
ag45
(g49
S'}\x98\xb1\xbe\x9c\xd2!@'
p1677
tp1678
Rp1679
ag45
(g49
S'wn\xfa\x87\x9d\xd7!@'
p1680
tp1681
Rp1682
ag45
(g49
S'"JdG#\xd4!@'
p1683
tp1684
Rp1685
ag45
(g49
S'\xb8K\xa1\xef\xa1\xd3!@'
p1686
tp1687
Rp1688
ag45
(g49
S'\x93v\xb11z\xd8!@'
p1689
tp1690
Rp1691
ag45
(g49
S'\xe7\x89\x14\n\x8d\xd9!@'
p1692
tp1693
Rp1694
ag45
(g49
S'\xc1$s\xf5\xc5\xd4!@'
p1695
tp1696
Rp1697
ag45
(g49
S'\xb6\xeb\xd4G\xd0\xd5!@'
p1698
tp1699
Rp1700
ag45
(g49
S'\xf4\xf9\xf7\xdf\xba\xda!@'
p1701
tp1702
Rp1703
ag45
(g49
S'\xf2\xd9\xd3Qc\xd2!@'
p1704
tp1705
Rp1706
ag45
(g49
S'\xe4&K\x8a\xb3\xd7!@'
p1707
tp1708
Rp1709
ag45
(g49
S'\xd0 \xc7\x03\xe6\xda!@'
p1710
tp1711
Rp1712
ag45
(g49
S'\xe0\xf3Z\xd5i\xd4!@'
p1713
tp1714
Rp1715
ag45
(g49
S'V_r\xdf \xd5!@'
p1716
tp1717
Rp1718
ag45
(g49
S'\xbc\xaau\x98R\xcf!@'
p1719
tp1720
Rp1721
ag45
(g49
S'\xda\x1b\x15\xc5\xdd\xd8!@'
p1722
tp1723
Rp1724
asI8
(lp1725
g45
(g49
S'\x9e\tJ\x9f\xf0\xd5!@'
p1726
tp1727
Rp1728
ag45
(g49
S'\x9dV3\xa6\xc7\xcf!@'
p1729
tp1730
Rp1731
ag45
(g49
S'?\x96m:v\xd2!@'
p1732
tp1733
Rp1734
ag45
(g49
S'\xb7\xdfm\xd1&\xd0!@'
p1735
tp1736
Rp1737
ag45
(g49
S'\xd8\x119\x18k\xd6!@'
p1738
tp1739
Rp1740
ag45
(g49
S'\x89*\xa8\xc4\xaa\xd7!@'
p1741
tp1742
Rp1743
ag45
(g49
S'\x9fJG\xc5N\xd2!@'
p1744
tp1745
Rp1746
ag45
(g49
S'L\xbd\x0c\xca\x9a\xca!@'
p1747
tp1748
Rp1749
ag45
(g49
S'\xc0\xa3\x1b\xd1(\xd8!@'
p1750
tp1751
Rp1752
ag45
(g49
S'\xd8d6/C\xd8!@'
p1753
tp1754
Rp1755
ag45
(g49
S'\x16}\x8eqE\xd1!@'
p1756
tp1757
Rp1758
ag45
(g49
S'vc7*\xb1\xd2!@'
p1759
tp1760
Rp1761
ag45
(g49
S'\x0bw\xfcw\x0f\xd6!@'
p1762
tp1763
Rp1764
ag45
(g49
S'\xbe\xe1\xb1\xc3P\xd5!@'
p1765
tp1766
Rp1767
ag45
(g49
S'\t\xd9\x8d\x99\xe3\xd0!@'
p1768
tp1769
Rp1770
ag45
(g49
S'\xbc\xaeA\x83\xfb\xd7!@'
p1771
tp1772
Rp1773
ag45
(g49
S'\xc9:\xbaQ\xd0\xd4!@'
p1774
tp1775
Rp1776
ag45
(g49
S'\xab\x1e\xe6e\xb1\xd6!@'
p1777
tp1778
Rp1779
ag45
(g49
S'n\x81\xb2e\xe0\xd3!@'
p1780
tp1781
Rp1782
ag45
(g49
S'\xc7\xfes6w\xd7!@'
p1783
tp1784
Rp1785
asI10
(lp1786
g45
(g49
S'\xc0\x1f\xaf/Z\xde!@'
p1787
tp1788
Rp1789
ag45
(g49
S'\xbf\x8c)\xe7z\xd5!@'
p1790
tp1791
Rp1792
ag45
(g49
S'\xaeO\xfd~\x16\xce!@'
p1793
tp1794
Rp1795
ag45
(g49
S'\xcb\x80\xb0\xaeQ\xda!@'
p1796
tp1797
Rp1798
ag45
(g49
S"|KO\xbf'\xd4!@"
p1799
tp1800
Rp1801
ag45
(g49
S'G\xaf\xaf\x99\x02\xd4!@'
p1802
tp1803
Rp1804
ag45
(g49
S'\xc6\x00\xa0\xf2\xc8\xd7!@'
p1805
tp1806
Rp1807
ag45
(g49
S'\x84\xa1\xfe\xac\x80\xd7!@'
p1808
tp1809
Rp1810
ag45
(g49
S'\xa1\xe5\xa3H\xd3\xce!@'
p1811
tp1812
Rp1813
ag45
(g49
S'\x00\x82V\xfa\x05\xca!@'
p1814
tp1815
Rp1816
ag45
(g49
S'\xa1>\x89\xdf\x86\xd8!@'
p1817
tp1818
Rp1819
ag45
(g49
S'\x00\xd2\x86g\x87\xd1!@'
p1820
tp1821
Rp1822
ag45
(g49
S'\xcdf\xee\xd2\x93\xd0!@'
p1823
tp1824
Rp1825
ag45
(g49
S',[\x8csM\xd5!@'
p1826
tp1827
Rp1828
ag45
(g49
S'\xdaP\xe0\xc3\xd8\xdc!@'
p1829
tp1830
Rp1831
ag45
(g49
S'\xdb\x7f\xca\xacg\xd7!@'
p1832
tp1833
Rp1834
ag45
(g49
S'\xa1\xbf\xd9<\xf0\xd3!@'
p1835
tp1836
Rp1837
ag45
(g49
S'\xa9\xeee\x8b`\xce!@'
p1838
tp1839
Rp1840
ag45
(g49
S')\xbe\xf7\xf3\xe1\xd7!@'
p1841
tp1842
Rp1843
ag45
(g49
S'QZ\xc8P\xec\xd8!@'
p1844
tp1845
Rp1846
asI20
(lp1847
g45
(g49
S'\x8d\xeeAX0\xce!@'
p1848
tp1849
Rp1850
ag45
(g49
S'\xf0\x0c6\x97\xee\xd9!@'
p1851
tp1852
Rp1853
ag45
(g49
S'\xfb\xbf\xdc\x12%\xa6!@'
p1854
tp1855
Rp1856
ag45
(g49
S'm[n\x93V\xd4!@'
p1857
tp1858
Rp1859
ag45
(g49
S'\x9e\xcf\xdf\xf0\xb4\xd1!@'
p1860
tp1861
Rp1862
ag45
(g49
S'\x8c\xf6x}\x89\xd6!@'
p1863
tp1864
Rp1865
ag45
(g49
S'\x02\x17t|\xe8\xd8!@'
p1866
tp1867
Rp1868
ag45
(g49
S'\xf3e\x9f\x7f\x97\xd1!@'
p1869
tp1870
Rp1871
ag45
(g49
S'\xb9\xa1\x96\x96l\xd5!@'
p1872
tp1873
Rp1874
ag45
(g49
S'\xb1\x85\xb2\xe6?\xd6!@'
p1875
tp1876
Rp1877
ag45
(g49
S'\xdd\xd5c!\x81\xd2!@'
p1878
tp1879
Rp1880
ag45
(g49
S'\xe0\xa4\xfb\xbc\x01\xd2!@'
p1881
tp1882
Rp1883
ag45
(g49
S'\x93\x01/m4\xc9!@'
p1884
tp1885
Rp1886
ag45
(g49
S'a\x06\xf3\xbd\xbe\xd5!@'
p1887
tp1888
Rp1889
ag45
(g49
S'\xbc\xf6a`\x01\xda!@'
p1890
tp1891
Rp1892
ag45
(g49
S'\xfd@\x86\xc8\xd3\xd0!@'
p1893
tp1894
Rp1895
ag45
(g49
S'\xdd\x1b\xc8\xac\xcf\xd9!@'
p1896
tp1897
Rp1898
ag45
(g49
S'\x8cK\x0b\xddN\xd6!@'
p1899
tp1900
Rp1901
ag45
(g49
S'\xberdC\xe5\xd1!@'
p1902
tp1903
Rp1904
ag45
(g49
S'\xd7\xe0P$\xde\xd3!@'
p1905
tp1906
Rp1907
assg14
(dp1908
I1
(lp1909
g45
(g49
S'\xec\xa1:\xd0\xb3\xfa!@'
p1910
tp1911
Rp1912
ag45
(g49
S'\xd74\xa7\x19|\xfb!@'
p1913
tp1914
Rp1915
ag45
(g49
S'\xbcH\xb6K\x10\xf5!@'
p1916
tp1917
Rp1918
ag45
(g49
S'\xa5\xd1:\xc0E\xfd!@'
p1919
tp1920
Rp1921
ag45
(g49
S'\xd4\x95\x8dX\x17\xf3!@'
p1922
tp1923
Rp1924
ag45
(g49
S'>\x1e{u\xfc\xec!@'
p1925
tp1926
Rp1927
ag45
(g49
S'B$_\xcb=\xfa!@'
p1928
tp1929
Rp1930
ag45
(g49
S'Ml\x80\x00>\xf9!@'
p1931
tp1932
Rp1933
ag45
(g49
S'p\xd3\x15R\x1b\xf1!@'
p1934
tp1935
Rp1936
ag45
(g49
S'\xf0\xb3\x16C\xa9\xf7!@'
p1937
tp1938
Rp1939
ag45
(g49
S'\xbf\xd8\x8c\xb0\xbf\xf9!@'
p1940
tp1941
Rp1942
ag45
(g49
S'}5\xd4\xe2\xd4\xfa!@'
p1943
tp1944
Rp1945
ag45
(g49
S'u^\x1b\xdb{\xf5!@'
p1946
tp1947
Rp1948
ag45
(g49
S'\xda\xdc8{C\xf0!@'
p1949
tp1950
Rp1951
ag45
(g49
S'[~}\xe9c\xde!@'
p1952
tp1953
Rp1954
ag45
(g49
S'_\x1e\xaa\xa1\x9a\xfd!@'
p1955
tp1956
Rp1957
ag45
(g49
S'_#x\xc5\xb3\xe6!@'
p1958
tp1959
Rp1960
ag45
(g49
S':b\x86\xe1i\xfc!@'
p1961
tp1962
Rp1963
ag45
(g49
S'\xe1\x9d\xd0~\xf1\xfe!@'
p1964
tp1965
Rp1966
ag45
(g49
S'P\xf2\x9f\x9d\xda\xf7!@'
p1967
tp1968
Rp1969
asI2
(lp1970
g45
(g49
S'\x101\x7f\xda\xaa\xf7!@'
p1971
tp1972
Rp1973
ag45
(g49
S's\xe2\x0b\xa1\x1d\xf7!@'
p1974
tp1975
Rp1976
ag45
(g49
S'\xb7\xc7,\x01\x80\xe5!@'
p1977
tp1978
Rp1979
ag45
(g49
S'\xba\x10\xd4\xe4\x1d\xe7!@'
p1980
tp1981
Rp1982
ag45
(g49
S'\xc30v>G\xeb!@'
p1983
tp1984
Rp1985
ag45
(g49
S'\xc0\xbd\x18"{\xf2!@'
p1986
tp1987
Rp1988
ag45
(g49
S'R\xbd%\x7f\x99\xfa!@'
p1989
tp1990
Rp1991
ag45
(g49
S'\x1b\xecT\xa9\x08\xd5!@'
p1992
tp1993
Rp1994
ag45
(g49
S'A\x0e\x01?J\xf0!@'
p1995
tp1996
Rp1997
ag45
(g49
S'\xb7]?<\xc0\xf7!@'
p1998
tp1999
Rp2000
ag45
(g49
S'9 \xaf\x89\xd6\xed!@'
p2001
tp2002
Rp2003
ag45
(g49
S'IYt$\xe5\xf8!@'
p2004
tp2005
Rp2006
ag45
(g49
S'\xa6\x8d\x195\xce\xfb!@'
p2007
tp2008
Rp2009
ag45
(g49
S'\xce\xf8\x1f\xb9\xaa\xf3!@'
p2010
tp2011
Rp2012
ag45
(g49
S'\x9c\xf9\xb6r{\xf9!@'
p2013
tp2014
Rp2015
ag45
(g49
S'\x93j\x92T\x00\xee!@'
p2016
tp2017
Rp2018
ag45
(g49
S'\xae\x19\xb0\xbb\x05\xfd!@'
p2019
tp2020
Rp2021
ag45
(g49
S'\xe0B\xf2\x90\x82\xf7!@'
p2022
tp2023
Rp2024
ag45
(g49
S'^O\xf7\xb0\x98\xfc!@'
p2025
tp2026
Rp2027
ag45
(g49
S'\x88}28\xe0\xf6!@'
p2028
tp2029
Rp2030
asI5
(lp2031
g45
(g49
S'\xa3_\xca~\xf3\xec!@'
p2032
tp2033
Rp2034
ag45
(g49
S'l\xac\xba\xad\xd1\xeb!@'
p2035
tp2036
Rp2037
ag45
(g49
S'\x18\xe3\xd9\x0b\xe5\xee!@'
p2038
tp2039
Rp2040
ag45
(g49
S'm\xe1\x0c\xdf\xad\xe9!@'
p2041
tp2042
Rp2043
ag45
(g49
S'_\xe9\xcfnb\xf3!@'
p2044
tp2045
Rp2046
ag45
(g49
S'\xb8\xbd\xc2\x87\x8a\xf0!@'
p2047
tp2048
Rp2049
ag45
(g49
S'k\xc7\xf0\x10\x8a\xe9!@'
p2050
tp2051
Rp2052
ag45
(g49
S'\xfb\x05Ww\xaf\xe9!@'
p2053
tp2054
Rp2055
ag45
(g49
S'*\x94#\xb0X\xe8!@'
p2056
tp2057
Rp2058
ag45
(g49
S'\nD\x9eS\xeb\xf4!@'
p2059
tp2060
Rp2061
ag45
(g49
S'+\xbf\xf4 \x15\xec!@'
p2062
tp2063
Rp2064
ag45
(g49
S'\xa6\xc0\x8d\xff\x19\xef!@'
p2065
tp2066
Rp2067
ag45
(g49
S'\x11x\x81!U\xef!@'
p2068
tp2069
Rp2070
ag45
(g49
S'\x8eS\xc2\t\x12\xf2!@'
p2071
tp2072
Rp2073
ag45
(g49
S'\xe4g\x0b\\[\xf0!@'
p2074
tp2075
Rp2076
ag45
(g49
S'\xdf\xdb\xe1\x938\xe9!@'
p2077
tp2078
Rp2079
ag45
(g49
S'{\xc6\xdb\xe2*\xf5!@'
p2080
tp2081
Rp2082
ag45
(g49
S'\xee\x1c(\xfcd\xf0!@'
p2083
tp2084
Rp2085
ag45
(g49
S'O`\xcb\xc7U\xe0!@'
p2086
tp2087
Rp2088
ag45
(g49
S'W\x81\xd9\x1c;\xe5!@'
p2089
tp2090
Rp2091
asI8
(lp2092
g45
(g49
S'\xafq\xf0\x99\xbe\xdc!@'
p2093
tp2094
Rp2095
ag45
(g49
S'\x8e\x94\xa8\xf1\xec\xf2!@'
p2096
tp2097
Rp2098
ag45
(g49
S'\xf1}\xef\xdf\x1f\xee!@'
p2099
tp2100
Rp2101
ag45
(g49
S'~\x04\xc8f\xd5\xeb!@'
p2102
tp2103
Rp2104
ag45
(g49
S'\xebnk/ \xf0!@'
p2105
tp2106
Rp2107
ag45
(g49
S'\xad]\r\xe4\x0b\xf3!@'
p2108
tp2109
Rp2110
ag45
(g49
S'np\xd9\xe7\x80\xf2!@'
p2111
tp2112
Rp2113
ag45
(g49
S'\xd7\xb7l\xce\xfe\xe9!@'
p2114
tp2115
Rp2116
ag45
(g49
S'\xe1\xb2\x96,\xc3\xf1!@'
p2117
tp2118
Rp2119
ag45
(g49
S'H9\xc7\x91\xe0\xf4!@'
p2120
tp2121
Rp2122
ag45
(g49
S'\xdd4\x9cWG\xec!@'
p2123
tp2124
Rp2125
ag45
(g49
S'\xad\x85l\\\xe5\xf2!@'
p2126
tp2127
Rp2128
ag45
(g49
S'\x1c \xeb\xa4\xf6\xed!@'
p2129
tp2130
Rp2131
ag45
(g49
S'\xc1\x94\x03\x14X\xe5!@'
p2132
tp2133
Rp2134
ag45
(g49
S'\x8f:Q\\\x10\xc3!@'
p2135
tp2136
Rp2137
ag45
(g49
S'\xe6\xe5\xc5\xca \xf1!@'
p2138
tp2139
Rp2140
ag45
(g49
S'\x7f_nlP\xeb!@'
p2141
tp2142
Rp2143
ag45
(g49
S'\x12t\xdbG\x05\xf9!@'
p2144
tp2145
Rp2146
ag45
(g49
S'o\x95g\xe0\x06\xf1!@'
p2147
tp2148
Rp2149
ag45
(g49
S'\xb3\x0eXR\xe9\xef!@'
p2150
tp2151
Rp2152
asI10
(lp2153
g45
(g49
S'\rr0\xa2\xb5\xdd!@'
p2154
tp2155
Rp2156
ag45
(g49
S'+g\xa9\xf9\x15\xde!@'
p2157
tp2158
Rp2159
ag45
(g49
S'm\xcf\xcf\x0b\xbc\xe8!@'
p2160
tp2161
Rp2162
ag45
(g49
S' \x86\x9841\xe7!@'
p2163
tp2164
Rp2165
ag45
(g49
S'\xc6\x0f%\xbe\x86\xe7!@'
p2166
tp2167
Rp2168
ag45
(g49
S'\xa1\x84I8\xfd\xdd!@'
p2169
tp2170
Rp2171
ag45
(g49
S'\xeaB\x82\xb6\xfd\xdd!@'
p2172
tp2173
Rp2174
ag45
(g49
S'\xde_o\x8dB\xd6!@'
p2175
tp2176
Rp2177
ag45
(g49
S'-\xde\xf7\x15\xb0\xcf!@'
p2178
tp2179
Rp2180
ag45
(g49
S'\xe3\xe9\xa3\xeb/\xe3!@'
p2181
tp2182
Rp2183
ag45
(g49
S'\x87\xa9d!\xbe\xe6!@'
p2184
tp2185
Rp2186
ag45
(g49
S'M?\x1d\xbd\xe7\xf1!@'
p2187
tp2188
Rp2189
ag45
(g49
S'\xe8!\xa7j\x17\xe0!@'
p2190
tp2191
Rp2192
ag45
(g49
S'\xd0\xb3J\xb9l\xe7!@'
p2193
tp2194
Rp2195
ag45
(g49
S'Y\xc1o\xff5\xea!@'
p2196
tp2197
Rp2198
ag45
(g49
S'\xdb\xd2\x08F\x7f\xd8!@'
p2199
tp2200
Rp2201
ag45
(g49
S'\x97D\xaa\x19h\xf0!@'
p2202
tp2203
Rp2204
ag45
(g49
S'\xb7\xf2\xf8\x1dC\xf2!@'
p2205
tp2206
Rp2207
ag45
(g49
S'\x1ba\xbe\x1a\xee\xe9!@'
p2208
tp2209
Rp2210
ag45
(g49
S'\x9d\x07\x9f#\x02\xea!@'
p2211
tp2212
Rp2213
asI20
(lp2214
g45
(g49
S's\xf4w\\\xf0\xe0!@'
p2215
tp2216
Rp2217
ag45
(g49
S'\xc0V\xe5a\x95\xec!@'
p2218
tp2219
Rp2220
ag45
(g49
S'0\x91\xc7\xa3~\xe9!@'
p2221
tp2222
Rp2223
ag45
(g49
S'\x01g\x7ff\x9f\xf2!@'
p2224
tp2225
Rp2226
ag45
(g49
S'_\xe2\xc4\xe4\x90\xe6!@'
p2227
tp2228
Rp2229
ag45
(g49
S'\x17\xa9\xa6\xcf\n\xe7!@'
p2230
tp2231
Rp2232
ag45
(g49
S'8].\xd9\x83\xe1!@'
p2233
tp2234
Rp2235
ag45
(g49
S'O\xdb:g\x89\xe1!@'
p2236
tp2237
Rp2238
ag45
(g49
S'\x0e\xa2\x0f\xf2<\xda!@'
p2239
tp2240
Rp2241
ag45
(g49
S'\xb1\xd8\xd0Y\x84\xe3!@'
p2242
tp2243
Rp2244
ag45
(g49
S'4\xeb\xef\xae\xac\xe3!@'
p2245
tp2246
Rp2247
ag45
(g49
S'/mk\xca\x87\xe7!@'
p2248
tp2249
Rp2250
ag45
(g49
S'bdo?\xeb\xe9!@'
p2251
tp2252
Rp2253
ag45
(g49
S'pl?wj\xe4!@'
p2254
tp2255
Rp2256
ag45
(g49
S'\x01\xb6\xc4\xec\xe1\xea!@'
p2257
tp2258
Rp2259
ag45
(g49
S'W1>\xf0\x99\xe2!@'
p2260
tp2261
Rp2262
ag45
(g49
S'\xd5\xc4Os&\xeb!@'
p2263
tp2264
Rp2265
ag45
(g49
S'\xb2f\x02\x16\x9e\xec!@'
p2266
tp2267
Rp2268
ag45
(g49
S'B\xb9\x05\x8c\xad\xeb!@'
p2269
tp2270
Rp2271
ag45
(g49
S'\x8c\t\xd1\xf2\xa1\xe5!@'
p2272
tp2273
Rp2274
assssS'id'
p2275
I0
s.