(dp0
S'name'
p1
S'scalability'
p2
sS'settings'
p3
(dp4
S'n_e'
p5
I10
sS'problems'
p6
(lp7
I1
aI2
aI6
aI8
asS'm'
p8
I5
sS'num_runs'
p9
I20
sS'v'
p10
I10000
ssS'algs'
p11
(lp12
S'RESOO'
p13
aS'SRESOO'
p14
aS'EmbeddedHunter'
p15
asS'at'
p16
(lp17
I100
aI500
aI1000
aI10000
aI50000
aI100000
asS'data'
p18
(dp19
I8
(dp20
g13
(dp21
I100000
(lp22
F7.818322072686426
aF8.789565218893888
aF8.600318591792133
aF7.9695025980947225
aF8.156889431277332
aF7.9334047215751
aF8.116535333057582
aF7.559368164695941
aF8.391267567558995
aF7.858009723903235
aF8.191500394199583
aF8.034435710480809
aF7.798574423993241
aF8.009341733064556
aF7.84729383150021
aF8.05984142020661
aF8.30674653048002
aF8.590999280858497
aF7.603352046962803
aF8.452868253398673
asI50000
(lp23
F8.230669139542202
aF7.342489490680386
aF7.431901587256547
aF7.594337870588934
aF7.322924691455013
aF7.965178072590849
aF8.408462610475993
aF7.996095858430497
aF8.032032070874937
aF7.8671558458931745
aF8.105046553039893
aF7.584481187018227
aF8.041648360650814
aF7.976370606380934
aF7.8410352758084265
aF8.317627663678108
aF8.066587621384839
aF7.6723903003468905
aF7.776165231855195
aF8.007590760908446
asI100
(lp24
F8.395044914286974
aF7.251800194156829
aF7.863800107607618
aF7.0526166022524865
aF7.617108658067593
aF8.085892910376907
aF7.6359048817685995
aF7.858895863011446
aF7.658509445008454
aF7.700849506318942
aF8.048731580676876
aF7.921294744476949
aF8.190739377455992
aF6.2118628803793925
aF8.013911053720394
aF7.4302635569957936
aF7.719688051397782
aF7.54688542476274
aF7.14570597637597
aF8.021860839075222
asI1000
(lp25
F7.951916921891627
aF6.179105604572161
aF7.419914757396397
aF8.372585977333422
aF8.31364636642343
aF8.21584293881985
aF8.149538271049027
aF7.693941076430214
aF7.822029795087527
aF7.5097790090441805
aF8.038858974935017
aF5.851197545471699
aF7.954689005080851
aF7.5773807491220175
aF7.222892893628073
aF7.6889733366345645
aF8.259810248408007
aF7.978276770209066
aF7.839863142676254
aF7.838106861735879
asI10000
(lp26
F8.286276364125433
aF8.56532286201997
aF8.258376433076078
aF6.6504978339104035
aF7.825320990277316
aF7.574182918177765
aF8.107422112495916
aF7.900569397200531
aF7.499058944525045
aF7.8656857353751874
aF7.866785715024564
aF8.298234244918097
aF7.930232866400262
aF8.172901026133214
aF6.564195797433868
aF7.794915936547687
aF7.948261338963761
aF7.336204489132186
aF6.97175101121355
aF7.0555297490864035
asI500
(lp27
F8.095262072879718
aF8.138122849439656
aF7.633610312461165
aF7.93354500440911
aF7.7318671941236925
aF6.616477842337414
aF7.327546898681641
aF7.238130774246191
aF7.2833797204970345
aF7.122586358267656
aF8.011347839776732
aF7.896543020382584
aF8.272627108770887
aF7.696750603702121
aF8.304243608302917
aF6.704669644851382
aF7.08436235105807
aF7.212192945346876
aF8.282816727635536
aF7.921092795023233
assg15
(dp28
I100000
(lp29
F7.450787622966567
aF7.410496092405944
aF7.292811156250842
aF7.448232910200655
aF7.226345457439487
aF7.096770648997593
aF7.254812967972722
aF7.453094959049949
aF7.399537779085547
aF7.344550106612861
aF7.06553856012383
aF7.2190840252648805
aF7.415465086251226
aF7.419521004505469
aF7.2641662385985235
aF7.410953946018658
aF7.018902572613939
aF7.274164764446258
aF7.246863852575384
aF7.523301307832609
asI50000
(lp30
F6.564877414002861
aF7.0911743789618615
aF6.786407070025829
aF6.679150990891696
aF6.8583046895381194
aF7.041198476213221
aF7.017852386423442
aF6.5076735501471035
aF6.862614024203804
aF6.461336723682194
aF6.949281640438111
aF6.700309895266251
aF6.659386153599051
aF6.59481257905977
aF6.607662713986201
aF6.516724166667711
aF6.417540669461573
aF6.944024936352108
aF6.846010702765625
aF6.782682388529521
asI100
(lp31
F6.330056770663486
aF5.690228889071783
aF4.936622025047075
aF5.801251136911951
aF5.226067810904663
aF5.501297370285542
aF5.211759550173181
aF5.683148162929502
aF6.238639022959326
aF5.445721338192335
aF5.7292108893877085
aF5.090038513164071
aF5.55568281128944
aF5.786988835250405
aF5.302430133470789
aF5.297866155755202
aF6.179820402099864
aF5.810319517080764
aF4.9892263531186565
aF6.068464319241134
asI1000
(lp32
F4.70782377623928
aF5.016735814470394
aF5.080513846826605
aF5.549622433517765
aF5.047570774682175
aF5.560833260348346
aF6.24819913926282
aF5.31986177319369
aF5.457093253409454
aF5.531712756020877
aF5.176161818960672
aF5.633725314730711
aF5.371029791166631
aF4.649263836728519
aF5.541173570539705
aF5.225959724135809
aF5.109300478083373
aF5.434205293935726
aF6.098766704898765
aF5.499129631535425
asI10000
(lp33
F5.280642930427199
aF5.793803022113597
aF5.1215443985722295
aF5.551618839611596
aF5.335661158577729
aF5.635143087758593
aF5.521066019444465
aF5.10623753920142
aF5.671577284751621
aF4.737914296667906
aF5.941449862069895
aF6.034551914940764
aF5.703407626524559
aF6.049828858553649
aF5.124635402786772
aF5.470587268873622
aF5.626070656044455
aF5.137433490056637
aF5.741972594224247
aF4.5349801293071295
asI500
(lp34
F6.072962521016915
aF6.046783483914023
aF5.6997853396815685
aF6.2081181162810815
aF6.6861523016722515
aF6.619122118571905
aF5.751979928259772
aF6.0180322804734026
aF5.868749438676641
aF5.772438848899103
aF6.214245631052272
aF6.140053687757263
aF6.165654707261382
aF6.0597543303688575
aF6.248276540000624
aF5.538384017012412
aF6.243206753079974
aF6.3785454127731605
aF5.910557376437421
aF5.815003439152882
assg14
(dp35
I100000
(lp36
F9.378631601215123
aF9.434144224085886
aF9.419296795033228
aF9.420967987337928
aF9.43607174788792
aF9.43365042785182
aF9.400178425204093
aF9.437962525440998
aF9.42020064851791
aF9.426003147186632
aF9.438920383403579
aF9.423108693213747
aF9.436804001287737
aF9.439596474404542
aF9.443240314809728
aF9.439954897438897
aF9.430607786982053
aF9.414098858934988
aF9.42462617565101
aF9.421755733805826
asI50000
(lp37
F9.419427118325489
aF9.397678743977275
aF9.393582352710059
aF9.410288568146646
aF9.405583375145415
aF9.384305022855033
aF9.408122207953182
aF9.405854566053076
aF9.422311463946542
aF9.402693800945492
aF9.394320467710811
aF9.438939375548339
aF9.396037225208017
aF9.419277383244095
aF9.388582302831502
aF9.412719277505532
aF9.399556831771275
aF9.437566966400812
aF9.386924737038818
aF9.42381476608187
asI100
(lp38
F7.99993994447477
aF8.577522060641577
aF8.450345384865969
aF8.430217317224736
aF8.256100649390286
aF8.325626892581756
aF8.65015936996879
aF8.299542873421025
aF8.797696453891234
aF8.190118157599448
aF7.915514817430369
aF8.24580555367828
aF8.25162132865137
aF8.843090051587094
aF8.256431763837961
aF8.42943177149084
aF7.9916676074224675
aF8.382093912930918
aF8.351971072886332
aF8.352524930383515
asI1000
(lp39
F8.7446441967713
aF8.93112639474965
aF8.782220210904535
aF9.060713794499886
aF8.943209379779613
aF8.854909287857868
aF9.017837032879731
aF9.169000388893807
aF9.032047266099276
aF9.084507282382003
aF8.653891046751644
aF8.974819232766407
aF9.111900006018521
aF9.118963763342187
aF8.929390463065381
aF8.804620036575383
aF8.82039419180998
aF8.946004867845893
aF8.892785347627935
aF8.839571580141861
asI10000
(lp40
F9.34111557701405
aF9.34666463299787
aF9.306301904005172
aF9.357351141437906
aF9.30506871866077
aF9.281038666976187
aF9.30484802668763
aF9.283105080044265
aF9.375703008930323
aF9.379859462953274
aF9.37406381497985
aF9.330376543971852
aF9.235245150947007
aF9.32603176986552
aF9.304655421683751
aF9.270879935660139
aF9.325645435204356
aF9.326564238166522
aF9.394750949203907
aF9.298717837949054
asI500
(lp41
F8.459592373372743
aF8.371966686558613
aF8.79526330877267
aF8.561326541131018
aF8.946664556332083
aF8.359256817606076
aF8.738829270780707
aF8.130337613548074
aF8.442818902404928
aF9.059744276653557
aF8.28605216300963
aF8.841322476663223
aF8.853232850696747
aF8.762747332727676
aF8.8584944010644
aF8.97807239755507
aF8.901896928126465
aF8.564337139237015
aF8.618387140514521
aF8.835132110034682
asssI1
(dp42
g13
(dp43
I100000
(lp44
cnumpy.core.multiarray
scalar
p45
(cnumpy
dtype
p46
(S'f8'
p47
I0
I1
tp48
Rp49
(I3
S'<'
p50
NNNI-1
I-1
I0
tp51
bS'%\xe5O\xc1\xb7"\xe5@'
p52
tp53
Rp54
ag45
(g49
S'\x90\xa4\xab\xc1~\xe6\tA'
p55
tp56
Rp57
ag45
(g49
S'\xe5\x81;\xb3 \x92\xee@'
p58
tp59
Rp60
ag45
(g49
S'\xbb@\xbdj&\xd4\xff@'
p61
tp62
Rp63
ag45
(g49
S'|\xb4\xd4\x1c\xf80\x07A'
p64
tp65
Rp66
ag45
(g49
S'tf\xf8\x19j\xdf\x03A'
p67
tp68
Rp69
ag45
(g49
S'\x7f\xff\xc8r/\x1d\xfc@'
p70
tp71
Rp72
ag45
(g49
S'n\x9e\xcc\xafO\x04\x17A'
p73
tp74
Rp75
ag45
(g49
S'\xedr\x11\xd94h\x03A'
p76
tp77
Rp78
ag45
(g49
S'\x1bAs\x88\x13v\xf0@'
p79
tp80
Rp81
ag45
(g49
S'\xf6y0Q\xd0\x9e\x14A'
p82
tp83
Rp84
ag45
(g49
S'\x12 #O\xb0`\x01A'
p85
tp86
Rp87
ag45
(g49
S'4\xf2\xc2\x05\x08\xac\xf2@'
p88
tp89
Rp90
ag45
(g49
S'\x1d!b\xcb\xfc\xd9\x05A'
p91
tp92
Rp93
ag45
(g49
S'\xbe\x8d\x95\x8fv?\x03A'
p94
tp95
Rp96
ag45
(g49
S'\x86\x924\x0bj\xc2\x02A'
p97
tp98
Rp99
ag45
(g49
S'=\x93\xa4\xc95\xb8\xf7@'
p100
tp101
Rp102
ag45
(g49
S'\xab\xd6\x85\xf4z}\x01A'
p103
tp104
Rp105
ag45
(g49
S'6\xe6\xcbK\x88\x1f\x0fA'
p106
tp107
Rp108
ag45
(g49
S'\x1dv\xea\x8c?7\x07A'
p109
tp110
Rp111
asI50000
(lp112
g45
(g49
S'\xc0#\x82\xd6D\x83\x01A'
p113
tp114
Rp115
ag45
(g49
S'\xea\xc4\x14\x80dz\x03A'
p116
tp117
Rp118
ag45
(g49
S'\xe8\x84\n$\xefO\x00A'
p119
tp120
Rp121
ag45
(g49
S'\xff1$\x0e\xd3\xca\xf2@'
p122
tp123
Rp124
ag45
(g49
S'j\xdf\x02\xafe\x07\xe6@'
p125
tp126
Rp127
ag45
(g49
S'\xc9\x8f \xaf\xa7\x9e\x07A'
p128
tp129
Rp130
ag45
(g49
S'{N\xbbJ\x85\xa3\nA'
p131
tp132
Rp133
ag45
(g49
S'\x01\xf5\x8eFN\x1f\xf1@'
p134
tp135
Rp136
ag45
(g49
S':\xdc\x94\xfc\x9a\x96\x04A'
p137
tp138
Rp139
ag45
(g49
S'G\nH\xea\x89\xca\x03A'
p140
tp141
Rp142
ag45
(g49
S'94\xb8\xce\x9c,\x9b@'
p143
tp144
Rp145
ag45
(g49
S'*\x1c\xea\xdf\xfe\x97\xed@'
p146
tp147
Rp148
ag45
(g49
S'K\xb1H\x0c\xb3"\x01A'
p149
tp150
Rp151
ag45
(g49
S'\xfe\xf7\xdf\x19xT\xfc@'
p152
tp153
Rp154
ag45
(g49
S'\xa3\xd4^\x9d\x8f&\xf0@'
p155
tp156
Rp157
ag45
(g49
S'\x03:Q\xe6\x85\xd5\x01A'
p158
tp159
Rp160
ag45
(g49
S'\xca\x07S/U1\xf7@'
p161
tp162
Rp163
ag45
(g49
S"'\x99\\\x93:d\xca@"
p164
tp165
Rp166
ag45
(g49
S')\xac.\x87-\x99\xd5@'
p167
tp168
Rp169
ag45
(g49
S'!B\x9bEQm\xfc@'
p170
tp171
Rp172
asI100
(lp173
g45
(g49
S'\xcd\xb2\xc8\xc9U^Y@'
p174
tp175
Rp176
ag45
(g49
S'\xcd\x97\xc8%\x01\xdeL@'
p177
tp178
Rp179
ag45
(g49
S'\\\x18t\x15\xd9qX@'
p180
tp181
Rp182
ag45
(g49
S'\xbapK\xef\x11xV@'
p183
tp184
Rp185
ag45
(g49
S'\x96\xa3\x889\x0e|Y@'
p186
tp187
Rp188
ag45
(g49
S"\xcfH\xf6\x02\xd1'^@"
p189
tp190
Rp191
ag45
(g49
S'\\\x13\xc1\xf8\xf1\xbbU@'
p192
tp193
Rp194
ag45
(g49
S'\xeb\xa8\x8a*\x03\x9eZ@'
p195
tp196
Rp197
ag45
(g49
S'\xa34\xfbv\xa3\xcfW@'
p198
tp199
Rp200
ag45
(g49
S'\xf4\xad\xa7\x96\x8b#[@'
p201
tp202
Rp203
ag45
(g49
S'\xc2\x90\xc4-\xb1\xdeM@'
p204
tp205
Rp206
ag45
(g49
S'\xf2\xb4\xb4\xd8J\xf2Z@'
p207
tp208
Rp209
ag45
(g49
S'\xab\\N@\xd2\x95A@'
p210
tp211
Rp212
ag45
(g49
S'6..l\xa50T@'
p213
tp214
Rp215
ag45
(g49
S'\x06\xab\x95\xf0n\x90O@'
p216
tp217
Rp218
ag45
(g49
S"\xf3\xf6'\xf4\xdf\x04\\@"
p219
tp220
Rp221
ag45
(g49
S'\x88\xa9\xc8\xa6\xeaVL@'
p222
tp223
Rp224
ag45
(g49
S'\xeck\x84W\xb4\x04e@'
p225
tp226
Rp227
ag45
(g49
S', \x83W\xe4ba@'
p228
tp229
Rp230
ag45
(g49
S'\xcd\n\xb2\xb1S\t[@'
p231
tp232
Rp233
asI1000
(lp234
g45
(g49
S'\x1e\x97\xee\xd9\x83\x1bT@'
p235
tp236
Rp237
ag45
(g49
S'\xb1\x16\xfcr\xd0\xf1G@'
p238
tp239
Rp240
ag45
(g49
S'\x87E\x0e\xc9S\xe5\\@'
p241
tp242
Rp243
ag45
(g49
S'%O\x88,\xdd\xc5C@'
p244
tp245
Rp246
ag45
(g49
S'}\x05h\xc6\xd0\xea\x96@'
p247
tp248
Rp249
ag45
(g49
S'o\xdd\xeb"\x0fYQ@'
p250
tp251
Rp252
ag45
(g49
S'\x96\x1d\xb5V\xb4Fb@'
p253
tp254
Rp255
ag45
(g49
S'\xd0\x91[\x19_pS@'
p256
tp257
Rp258
ag45
(g49
S'\xe0\x7f\x8c\xb6\x95\xcdd@'
p259
tp260
Rp261
ag45
(g49
S'\x98\x93\xf4\x10>OV@'
p262
tp263
Rp264
ag45
(g49
S'\xb7\xc4l\xd9,j@@'
p265
tp266
Rp267
ag45
(g49
S'\x98;r\xbc\xcc\xccL@'
p268
tp269
Rp270
ag45
(g49
S'\xc1\xb3k\xe5\x03\x1c>@'
p271
tp272
Rp273
ag45
(g49
S'\t\x7f\x80\xf3\xd4\xd6N@'
p274
tp275
Rp276
ag45
(g49
S'D\xdf<\x84\xbd\x84\\@'
p277
tp278
Rp279
ag45
(g49
S'\x0c\x92O%T\x92^@'
p280
tp281
Rp282
ag45
(g49
S'\x16V F\xc4\xeaQ@'
p283
tp284
Rp285
ag45
(g49
S'\xf8K\x16Z\x8f\xf9Q@'
p286
tp287
Rp288
ag45
(g49
S'M\x8b\xee\xea|\xc7P@'
p289
tp290
Rp291
ag45
(g49
S'[\x16.\xe2\x06LQ@'
p292
tp293
Rp294
asI10000
(lp295
g45
(g49
S'LH\xaf\xee\x05kA@'
p296
tp297
Rp298
ag45
(g49
S'\x0c6f\xb0"\x7f\xc6@'
p299
tp300
Rp301
ag45
(g49
S'\xd9\xe6rK\x1dBT@'
p302
tp303
Rp304
ag45
(g49
S'@\x80\n;\x89\x1b\x85@'
p305
tp306
Rp307
ag45
(g49
S'=\xd2\x91V\xc8BU@'
p308
tp309
Rp310
ag45
(g49
S'\xb1`\xcd\x96-d\xdf@'
p311
tp312
Rp313
ag45
(g49
S'Vt\x07>u[N@'
p314
tp315
Rp316
ag45
(g49
S'\xcbQ\x8f\xbb\xf2\xab\xa3@'
p317
tp318
Rp319
ag45
(g49
S'u\xfc\x845\xdb\xfb\xc4@'
p320
tp321
Rp322
ag45
(g49
S'G\xa8\xfe\x999(P@'
p323
tp324
Rp325
ag45
(g49
S'^\x84:\x9e\x0b\x15\xd1@'
p326
tp327
Rp328
ag45
(g49
S'\x8aS\x1d\xb0x\xc7\xb2@'
p329
tp330
Rp331
ag45
(g49
S'\x9c\xe5\x1btJ\xcfQ@'
p332
tp333
Rp334
ag45
(g49
S'E\xe6QS\x14\xd6H@'
p335
tp336
Rp337
ag45
(g49
S'7\xdc\xdf\x8f\xca9\xe3@'
p338
tp339
Rp340
ag45
(g49
S'L\xa0\xf4\xdf\x10n\xb8@'
p341
tp342
Rp343
ag45
(g49
S'F"\x8e\xc4#xT@'
p344
tp345
Rp346
ag45
(g49
S'K\x87z\x9a\xef\x84Z@'
p347
tp348
Rp349
ag45
(g49
S'OV\x104]\xd2J@'
p350
tp351
Rp352
ag45
(g49
S'\xdb\xb2{\xff\xccMB@'
p353
tp354
Rp355
asI500
(lp356
g45
(g49
S'\xa2wyI\xc9\x02H@'
p357
tp358
Rp359
ag45
(g49
S'<\xc4\x17\xe8\xff\xdd`@'
p360
tp361
Rp362
ag45
(g49
S'\xbdTm\x1c\x02AV@'
p363
tp364
Rp365
ag45
(g49
S'\xe8\x8f\xdc/\xa4\x9eQ@'
p366
tp367
Rp368
ag45
(g49
S'\xed\xc2\xe5X\xcb\xf87@'
p369
tp370
Rp371
ag45
(g49
S'\xd7\xa8c\xbc\x85[i@'
p372
tp373
Rp374
ag45
(g49
S'[L\xb6w\xaa\x0bR@'
p375
tp376
Rp377
ag45
(g49
S'\xc6{E\x87\x1d\xd9O@'
p378
tp379
Rp380
ag45
(g49
S'\x10\x01\xe4\x8a\xac\x04Q@'
p381
tp382
Rp383
ag45
(g49
S'eN-]\xc0bQ@'
p384
tp385
Rp386
ag45
(g49
S"m'\xdf>\xf8CJ@"
p387
tp388
Rp389
ag45
(g49
S'\x0c\x974^\x9a\x14\x80@'
p390
tp391
Rp392
ag45
(g49
S'"}\xb1\xea\xf91b@'
p393
tp394
Rp395
ag45
(g49
S'\x83\xfd\xee\x9d\xc7\xb0J@'
p396
tp397
Rp398
ag45
(g49
S'\xf6=\xb2Xq\x80S@'
p399
tp400
Rp401
ag45
(g49
S'\x0cW^\x0e\x90\x8dj@'
p402
tp403
Rp404
ag45
(g49
S'\xfa\x92K\x93\xea+^@'
p405
tp406
Rp407
ag45
(g49
S'U\xce$\xbb\x15\xaf@@'
p408
tp409
Rp410
ag45
(g49
S'\xd8\x02@eH\xbcZ@'
p411
tp412
Rp413
ag45
(g49
S"\xa8\xb8'\x08U\x1eT@"
p414
tp415
Rp416
assg15
(dp417
I100000
(lp418
g45
(g49
S'\x1f?\xd3\x81\x04\x8d\xa8@'
p419
tp420
Rp421
ag45
(g49
S'\xfc\x13\xe0,U\xad\xd4@'
p422
tp423
Rp424
ag45
(g49
S'\xfc\x00\x14\x00\x8a\n\xbc@'
p425
tp426
Rp427
ag45
(g49
S'\t\xf0\x18\xc8\x1e\xb3\xbc@'
p428
tp429
Rp430
ag45
(g49
S'+\xe8H\xc9H+\xb8@'
p431
tp432
Rp433
ag45
(g49
S'LR\xe5M\xb9`J@'
p434
tp435
Rp436
ag45
(g49
S'z\xff\xf4\xbaq\x1f\xc3@'
p437
tp438
Rp439
ag45
(g49
S'8\x1b\xe0\xf4\xbd\xea]@'
p440
tp441
Rp442
ag45
(g49
S'M?\xbb/a\xf4\x93@'
p443
tp444
Rp445
ag45
(g49
S'w\x02\xa3\xadR\x0ca@'
p446
tp447
Rp448
ag45
(g49
S'Y\xf9\x9c\xff&,\xb5@'
p449
tp450
Rp451
ag45
(g49
S'=\x14\xb6\x7ff\xe4\xc7@'
p452
tp453
Rp454
ag45
(g49
S'`\xa7\xa3\xec\x80\x10\x96@'
p455
tp456
Rp457
ag45
(g49
S'\xcc_x|`\xb8\xc6@'
p458
tp459
Rp460
ag45
(g49
S'\xb5\x0e\xcb5\xd1\x1d\x9a@'
p461
tp462
Rp463
ag45
(g49
S'\xab\x1e\xd6\x9e\xb2V\xc3@'
p464
tp465
Rp466
ag45
(g49
S'\x82\xd0\x0b\xcaG>O@'
p467
tp468
Rp469
ag45
(g49
S'\xd7D5\xa4B1\xb2@'
p470
tp471
Rp472
ag45
(g49
S'\xd2=\xcf7\xd9!\x93@'
p473
tp474
Rp475
ag45
(g49
S'\xd1!Wg\xb8\xe2\xcc@'
p476
tp477
Rp478
asI50000
(lp479
g45
(g49
S']\xc0\xa2Lp@T@'
p480
tp481
Rp482
ag45
(g49
S'~D$B\xa7\x07U@'
p483
tp484
Rp485
ag45
(g49
S'P;\xf6\x15/\xd8M@'
p486
tp487
Rp488
ag45
(g49
S'\x8aR\xc6\xa0\xa3+K@'
p489
tp490
Rp491
ag45
(g49
S'b\xd95WK\xc3E@'
p492
tp493
Rp494
ag45
(g49
S'\x1a\xed\xe2\x16\x96\x18Q@'
p495
tp496
Rp497
ag45
(g49
S'\xda@H\xe1pkF@'
p498
tp499
Rp500
ag45
(g49
S'\x82\x120\xb2\x1a\x96N@'
p501
tp502
Rp503
ag45
(g49
S'GMv\xf9\xc8\x17E@'
p504
tp505
Rp506
ag45
(g49
S'\xf4\x07\xb2W\x80\xaeO@'
p507
tp508
Rp509
ag45
(g49
S'6Fe\xbbPqD@'
p510
tp511
Rp512
ag45
(g49
S'\x1ap\xe2\xfeDrH@'
p513
tp514
Rp515
ag45
(g49
S'\xa2A\xcaM*\xdfS@'
p516
tp517
Rp518
ag45
(g49
S'"\x0e\xfcB\xca\x90I@'
p519
tp520
Rp521
ag45
(g49
S'R"\n\xe7a\x1fQ@'
p522
tp523
Rp524
ag45
(g49
S"\xa3\xf5\xd7\x11\xfe'R@"
p525
tp526
Rp527
ag45
(g49
S'4X;\x82\xed\xfaA@'
p528
tp529
Rp530
ag45
(g49
S'\xa1N\xd21\xa0wQ@'
p531
tp532
Rp533
ag45
(g49
S'\xf5\x8a\xae\x0c\xef\x0cI@'
p534
tp535
Rp536
ag45
(g49
S'\x9a\xd70z\x1e\x0bI@'
p537
tp538
Rp539
asI100
(lp540
g45
(g49
S'\x11h\xdbP\x11hD@'
p541
tp542
Rp543
ag45
(g49
S'\xcd\x8fL\xae\x97AV@'
p544
tp545
Rp546
ag45
(g49
S'\xac\x1b\xeb{&\xd2J@'
p547
tp548
Rp549
ag45
(g49
S'~\x12W{0\tC@'
p550
tp551
Rp552
ag45
(g49
S'\xa2Q\xf4\xaaZ\x16A@'
p553
tp554
Rp555
ag45
(g49
S'\x1d\x05\x80l6\xfcJ@'
p556
tp557
Rp558
ag45
(g49
S'\xe4\x93\xb3>\x93\xa0<@'
p559
tp560
Rp561
ag45
(g49
S'\x89\x1d\x1c\x14v\xebH@'
p562
tp563
Rp564
ag45
(g49
S'l\xf9\xf3W\xe0\x10J@'
p565
tp566
Rp567
ag45
(g49
S"2\x832#['@@"
p568
tp569
Rp570
ag45
(g49
S'\xc4\xfe\xa8\xa3\x17]I@'
p571
tp572
Rp573
ag45
(g49
S"'{\xb3\xc6\xb7\x87E@"
p574
tp575
Rp576
ag45
(g49
S'q\x14\x12\x02\xa7NE@'
p577
tp578
Rp579
ag45
(g49
S'\xce\xc4\xeb`\xf6WG@'
p580
tp581
Rp582
ag45
(g49
S'\x18u\xc2O\x99\x17I@'
p583
tp584
Rp585
ag45
(g49
S'E2\xe0\xd6\xf1aL@'
p586
tp587
Rp588
ag45
(g49
S'\xbf\x9f\xb2\x1b\xd8\x0cA@'
p589
tp590
Rp591
ag45
(g49
S'\xfb\xb1\xacL\x0e\x8e@@'
p592
tp593
Rp594
ag45
(g49
S'\x03F%\xa2vyL@'
p595
tp596
Rp597
ag45
(g49
S'}\xf2{\xe95\xc4J@'
p598
tp599
Rp600
asI1000
(lp601
g45
(g49
S'HM;\xee\xcc6B@'
p602
tp603
Rp604
ag45
(g49
S'\r\xads\xc9T\xd5K@'
p605
tp606
Rp607
ag45
(g49
S'\\\x8fO\xf2\x88\xbeF@'
p608
tp609
Rp610
ag45
(g49
S'\xe2\xe8\xfb\x06\xcc3F@'
p611
tp612
Rp613
ag45
(g49
S'\n\xd6\xd1q\x80\xfeA@'
p614
tp615
Rp616
ag45
(g49
S'\x04\x87\xd2R7MI@'
p617
tp618
Rp619
ag45
(g49
S'\x86\xa8\xa3W\x11\x10J@'
p620
tp621
Rp622
ag45
(g49
S'\x1c\x10\x8c\r+JN@'
p623
tp624
Rp625
ag45
(g49
S'\x98\x91\xab\xdb7\xe8L@'
p626
tp627
Rp628
ag45
(g49
S'\xf4\xaf\xa1x+\xe3@@'
p629
tp630
Rp631
ag45
(g49
S'\x10\xe1EQl\xd1I@'
p632
tp633
Rp634
ag45
(g49
S'JD\x9cZ<\x1cP@'
p635
tp636
Rp637
ag45
(g49
S'\x82m\xca\x0e\x1f\x08B@'
p638
tp639
Rp640
ag45
(g49
S'\xd9\xf26$\xad\xd1G@'
p641
tp642
Rp643
ag45
(g49
S'1\xb8\xfc\xa2\x8b\xf5H@'
p644
tp645
Rp646
ag45
(g49
S'\x88\xb7\xf9s`wK@'
p647
tp648
Rp649
ag45
(g49
S'L\xeds\x85L;S@'
p650
tp651
Rp652
ag45
(g49
S'\xa6\x15.\x99\xb6GB@'
p653
tp654
Rp655
ag45
(g49
S'\xa1.-\xed4\xe8D@'
p656
tp657
Rp658
ag45
(g49
S'\xa2\xf26\xb9\x80\x18B@'
p659
tp660
Rp661
asI10000
(lp662
g45
(g49
S'\xdd@\xe8V/B@@'
p663
tp664
Rp665
ag45
(g49
S'\x0bQy\xc7q\xd5=@'
p666
tp667
Rp668
ag45
(g49
S'^IyK\x16\x1d0@'
p669
tp670
Rp671
ag45
(g49
S'\xd6\x8c\x7f\xcb\xaeJ:@'
p672
tp673
Rp674
ag45
(g49
S'\xac4U\xf6\xe4+F@'
p675
tp676
Rp677
ag45
(g49
S'\xd9\xd5C+\n\r;@'
p678
tp679
Rp680
ag45
(g49
S'\xdb\x19\x11-\x06\xf0F@'
p681
tp682
Rp683
ag45
(g49
S'3(|\xe4\xa4\xcbB@'
p684
tp685
Rp686
ag45
(g49
S'\x89\x85\xcb\xe1\xef\xd49@'
p687
tp688
Rp689
ag45
(g49
S';\xc4\x1c\x9e\n\xc49@'
p690
tp691
Rp692
ag45
(g49
S'\xde\xff\x0f\xf6\x07w8@'
p693
tp694
Rp695
ag45
(g49
S'q\t\x9f\x94\xd3ND@'
p696
tp697
Rp698
ag45
(g49
S'\xf0\xc2\xf4\xf2"KB@'
p699
tp700
Rp701
ag45
(g49
S'ta\x18T\x94~@@'
p702
tp703
Rp704
ag45
(g49
S'.\xe4\x08pU\xb0A@'
p705
tp706
Rp707
ag45
(g49
S'\x15+\xa3\xab\xb4\x9aF@'
p708
tp709
Rp710
ag45
(g49
S'/J\x16\x0f\r\xfa@@'
p711
tp712
Rp713
ag45
(g49
S'X\xcb\x18\x0e\x85\x16E@'
p714
tp715
Rp716
ag45
(g49
S'\x97\x94\xc2\xfd\x07\x14E@'
p717
tp718
Rp719
ag45
(g49
S'\x19\x81\x03\xbd\xc9\xc58@'
p720
tp721
Rp722
asI500
(lp723
g45
(g49
S'\x9cZ\xaa\x93VdG@'
p724
tp725
Rp726
ag45
(g49
S'\xe3\xa6\xa8N\x01\t<@'
p727
tp728
Rp729
ag45
(g49
S'\x92\xdc\x7fT\xef\x97H@'
p730
tp731
Rp732
ag45
(g49
S'Z\xcc\x13I\xe6\xa0O@'
p733
tp734
Rp735
ag45
(g49
S'o>\x98)\xf9\nP@'
p736
tp737
Rp738
ag45
(g49
S'W\x8e\x01h+nF@'
p739
tp740
Rp741
ag45
(g49
S'p2\x11\xa9\xf5OF@'
p742
tp743
Rp744
ag45
(g49
S'\xc76\xd8\xb0\x86\xb1Q@'
p745
tp746
Rp747
ag45
(g49
S';\xe3V\x1a\xf0P@@'
p748
tp749
Rp750
ag45
(g49
S'\xb2\xa3@\xf2\x1c+O@'
p751
tp752
Rp753
ag45
(g49
S"'V\x90\x11\x12~P@"
p754
tp755
Rp756
ag45
(g49
S'\xc1;X;g}C@'
p757
tp758
Rp759
ag45
(g49
S'\x84}c4\x05\x13Q@'
p760
tp761
Rp762
ag45
(g49
S'\xb4E\\\xcd\x9c\x1cK@'
p763
tp764
Rp765
ag45
(g49
S'h\xd6Q\x8cU\x10K@'
p766
tp767
Rp768
ag45
(g49
S'[\xf8\xf7h\xb1?>@'
p769
tp770
Rp771
ag45
(g49
S'dM\x8d\xa1\x8f\xb3R@'
p772
tp773
Rp774
ag45
(g49
S'\x9d\x7f\xec0+l2@'
p775
tp776
Rp777
ag45
(g49
S'\x01c>1\xa1:N@'
p778
tp779
Rp780
ag45
(g49
S'\x14\x03XYu\x10O@'
p781
tp782
Rp783
assg14
(dp784
I100000
(lp785
g45
(g49
S'\xe2q\xbaKj\x18 A'
p786
tp787
Rp788
ag45
(g49
S'\xd8\x11b\x80z\x07 A'
p789
tp790
Rp791
ag45
(g49
S'F\xdf\xc8:\xa0\x17 A'
p792
tp793
Rp794
ag45
(g49
S'\x1f\x88N\x82K\xf9\x1fA'
p795
tp796
Rp797
ag45
(g49
S'\x9c."\xbb\xcf\x0c A'
p798
tp799
Rp800
ag45
(g49
S'\xa3\\v\x96c\xe6\x1fA'
p801
tp802
Rp803
ag45
(g49
S'\xe3A\xc2~6\xf8\x1fA'
p804
tp805
Rp806
ag45
(g49
S'\xc82\x13H\xd9\x1e A'
p807
tp808
Rp809
ag45
(g49
S'\xe9j|\x87\xe0\x01 A'
p810
tp811
Rp812
ag45
(g49
S'\x1dbJfk\x07 A'
p813
tp814
Rp815
ag45
(g49
S'\xb8\xca\xa6vj\x1b A'
p816
tp817
Rp818
ag45
(g49
S'\xb0\xb9\x17K\x861 A'
p819
tp820
Rp821
ag45
(g49
S'O\xf61rh\x14 A'
p822
tp823
Rp824
ag45
(g49
S'\x030#\xc7\x1b\x14 A'
p825
tp826
Rp827
ag45
(g49
S'm\xf8\x11 \x89\x0f A'
p828
tp829
Rp830
ag45
(g49
S'p\xa1\xd9h\xc1\xd6\x1fA'
p831
tp832
Rp833
ag45
(g49
S'L\x9csJ\xb1) A'
p834
tp835
Rp836
ag45
(g49
S'\x06\xb6\x82+>\x13 A'
p837
tp838
Rp839
ag45
(g49
S'\xd6\xbe\xe8\x8e\xed6 A'
p840
tp841
Rp842
ag45
(g49
S'0F\x02\xb0\xef\x1a A'
p843
tp844
Rp845
asI50000
(lp846
g45
(g49
S'%@\xe5%H\x1e A'
p847
tp848
Rp849
ag45
(g49
S'DhVh_\x0f A'
p850
tp851
Rp852
ag45
(g49
S'$L\xd6\x1fU\x08 A'
p853
tp854
Rp855
ag45
(g49
S'\x97\x88\x9b\xb3K\x1d A'
p856
tp857
Rp858
ag45
(g49
S'\r\xc4\xfa\n\xc2\xc0\x1fA'
p859
tp860
Rp861
ag45
(g49
S'\xad(\x0e\xfa\xb1\xed\x1fA'
p862
tp863
Rp864
ag45
(g49
S'\x1a\xf7\x9d\x07No\x1fA'
p865
tp866
Rp867
ag45
(g49
S'kY\xd5\xf7\xa0\xd1\x1fA'
p868
tp869
Rp870
ag45
(g49
S'\xd1\x9f\xc0\xe1?\x0b A'
p871
tp872
Rp873
ag45
(g49
S'G\x9c\xb7\xbb}\xc6\x1fA'
p874
tp875
Rp876
ag45
(g49
S'v\xe2\xb2[\xfe\xff\x1fA'
p877
tp878
Rp879
ag45
(g49
S'\xe65\xb3\xbf\xb0\xdd\x1fA'
p880
tp881
Rp882
ag45
(g49
S'{%\xe4\xe6\x0b\x0e A'
p883
tp884
Rp885
ag45
(g49
S'\xcd\xdb\x91\x86|\xc0\x1fA'
p886
tp887
Rp888
ag45
(g49
S'\x8b=\xc0O\xee\xac\x1fA'
p889
tp890
Rp891
ag45
(g49
S'T\xd9\x01\x05\xff\xce\x1fA'
p892
tp893
Rp894
ag45
(g49
S"t(\x87\xa2\x88' A"
p895
tp896
Rp897
ag45
(g49
S'\xe6\xa0t\xf8d\x94\x1fA'
p898
tp899
Rp900
ag45
(g49
S'26&P?\xfe\x1fA'
p901
tp902
Rp903
ag45
(g49
S'\x0c/\xf8\xb3:\x12 A'
p904
tp905
Rp906
asI100
(lp907
g45
(g49
S'$<\x98\xe1\xd7\xfb\x10A'
p908
tp909
Rp910
ag45
(g49
S'\x14\x98\xa6&}\xe4\x13A'
p911
tp912
Rp913
ag45
(g49
S'7\x14)\xa9(~\x15A'
p914
tp915
Rp916
ag45
(g49
S'\xf7\x9c\xe6\x8f\x079\x17A'
p917
tp918
Rp919
ag45
(g49
S'\xe7pz\x10\xf95\x0fA'
p920
tp921
Rp922
ag45
(g49
S'\x05}\x8d\x9b\x8dj\rA'
p923
tp924
Rp925
ag45
(g49
S'\x9a\xa9\xed\xc7<\xa9\x12A'
p926
tp927
Rp928
ag45
(g49
S"\x8fp'\xa3\x91\x82\x01A"
p929
tp930
Rp931
ag45
(g49
S'c\xd8A-\xec\xee\x13A'
p932
tp933
Rp934
ag45
(g49
S'\x00GH\x88\xd7\x06\x0cA'
p935
tp936
Rp937
ag45
(g49
S'\xa5\x93\x96J\x98\xc1\x0fA'
p938
tp939
Rp940
ag45
(g49
S'\xec\x81\x03\xa1\x8f\x95\x0eA'
p941
tp942
Rp943
ag45
(g49
S'\xb3\x1a*\xd4J\xd8\x10A'
p944
tp945
Rp946
ag45
(g49
S'\x16\x9bZ\x1f\xbd\xa0\tA'
p947
tp948
Rp949
ag45
(g49
S'~72r\xdc\xd8\x13A'
p950
tp951
Rp952
ag45
(g49
S'\xb0\xe64\x86\x90\x9c\x0fA'
p953
tp954
Rp955
ag45
(g49
S'_\x16P\x8f6p\x05A'
p956
tp957
Rp958
ag45
(g49
S'\xfd\x0f\x7fq\xa3U\x10A'
p959
tp960
Rp961
ag45
(g49
S'\x8d\\\x10\x01\x13\xff\x10A'
p962
tp963
Rp964
ag45
(g49
S'\x91\xc6\x93\xa76+\x15A'
p965
tp966
Rp967
asI1000
(lp968
g45
(g49
S'\x19\x00\xa9\xba\x7fs\x1cA'
p969
tp970
Rp971
ag45
(g49
S'\x11\x05\x0c\xa8\xcc\x10\x1cA'
p972
tp973
Rp974
ag45
(g49
S'\xf3\xa0)D.c\x1bA'
p975
tp976
Rp977
ag45
(g49
S'\x0c\xfd\xdbJ{\x0c\x1bA'
p978
tp979
Rp980
ag45
(g49
S'a\x92yL\xb1C\x1bA'
p981
tp982
Rp983
ag45
(g49
S';\x9b\x08[\x96-\x1aA'
p984
tp985
Rp986
ag45
(g49
S'\xdfz\x01\xa7L$\x1aA'
p987
tp988
Rp989
ag45
(g49
S'\xdc\x01\x8b\x00\xce\xfc\x1bA'
p990
tp991
Rp992
ag45
(g49
S'm\x1d\xef\x8e(\xbe\x1aA'
p993
tp994
Rp995
ag45
(g49
S'El\x82\x07tD\x19A'
p996
tp997
Rp998
ag45
(g49
S'\x85\x01\xcfr\x94\x15\x1bA'
p999
tp1000
Rp1001
ag45
(g49
S'RF\x83\x1d\xb5\x1e\x1bA'
p1002
tp1003
Rp1004
ag45
(g49
S'\x0b\xd1\xf2\xd6\x83\xed\x18A'
p1005
tp1006
Rp1007
ag45
(g49
S'\x94\xb6B>;`\x1bA'
p1008
tp1009
Rp1010
ag45
(g49
S'\t\xc6\x9bs?9\x1bA'
p1011
tp1012
Rp1013
ag45
(g49
S'\x0f\x82\xa9\xd0\xaa`\x1bA'
p1014
tp1015
Rp1016
ag45
(g49
S'\x9c\xdb\x14\x15z\x9a\x1aA'
p1017
tp1018
Rp1019
ag45
(g49
S'zW\xc5\xe3\x10\x11\x1aA'
p1020
tp1021
Rp1022
ag45
(g49
S'm\xffr\x88\x16\x85\x1bA'
p1023
tp1024
Rp1025
ag45
(g49
S'*\xf1\xeeXy\xe2\x1aA'
p1026
tp1027
Rp1028
asI10000
(lp1029
g45
(g49
S'\xfc\\\xb1\x9e\x81i\x1fA'
p1030
tp1031
Rp1032
ag45
(g49
S'\x91E@(\x0c}\x1fA'
p1033
tp1034
Rp1035
ag45
(g49
S'\x109\x02\xb84\xa5\x1fA'
p1036
tp1037
Rp1038
ag45
(g49
S'c\xf7\xf6Z9\xbd\x1eA'
p1039
tp1040
Rp1041
ag45
(g49
S'\x85\x04\xf2\xea*\xe4\x1eA'
p1042
tp1043
Rp1044
ag45
(g49
S'`e\xac\x98\xb2\x13\x1eA'
p1045
tp1046
Rp1047
ag45
(g49
S'\xf5\xb8C\x99z\xd4\x1fA'
p1048
tp1049
Rp1050
ag45
(g49
S'Z\x11\xfa3\xc3\x8e\x1eA'
p1051
tp1052
Rp1053
ag45
(g49
S'r.(\xa6\xce6\x1fA'
p1054
tp1055
Rp1056
ag45
(g49
S'\xe6\xa7\x15jP*\x1fA'
p1057
tp1058
Rp1059
ag45
(g49
S'\x8d\x97\x14\x9a\xcd\xb5\x1dA'
p1060
tp1061
Rp1062
ag45
(g49
S'\xe7\xc0\xcb\xc5\xb6\xc5\x1dA'
p1063
tp1064
Rp1065
ag45
(g49
S'&\x8dt\x18\xec\xd6\x1eA'
p1066
tp1067
Rp1068
ag45
(g49
S'\xc4t\x859*g\x1fA'
p1069
tp1070
Rp1071
ag45
(g49
S'c!\xc2_%\xc3\x1fA'
p1072
tp1073
Rp1074
ag45
(g49
S'>u\x98\x90\xdcB\x1eA'
p1075
tp1076
Rp1077
ag45
(g49
S'\xd2\xfd\xa2#R!\x1fA'
p1078
tp1079
Rp1080
ag45
(g49
S'\xd1\xc6\xb2\xfb\xcc\xf7\x1fA'
p1081
tp1082
Rp1083
ag45
(g49
S'\xd7N\xea\x9b\xd3\x07\x1fA'
p1084
tp1085
Rp1086
ag45
(g49
S'\xde\x97\x1b\x87B\xd4\x1fA'
p1087
tp1088
Rp1089
asI500
(lp1090
g45
(g49
S'\x0c2\x97,\xa1\xb3\x19A'
p1091
tp1092
Rp1093
ag45
(g49
S'\x06\xd2_\x8e\xb2\x9b\x1bA'
p1094
tp1095
Rp1096
ag45
(g49
S'{u\xc8a\x0b\xc5\x19A'
p1097
tp1098
Rp1099
ag45
(g49
S'U\x01z_\xf3\xf5\x16A'
p1100
tp1101
Rp1102
ag45
(g49
S'\xa2\x00L\x90"\xcb\x19A'
p1103
tp1104
Rp1105
ag45
(g49
S'/\xfa\xf7 \xa9\x8c\x19A'
p1106
tp1107
Rp1108
ag45
(g49
S'vd\xe1\x81\x9b\x08\x18A'
p1109
tp1110
Rp1111
ag45
(g49
S'\x06\xc5F\x9d\x88\xe9\x1aA'
p1112
tp1113
Rp1114
ag45
(g49
S'\xd34\xbc\xd1\x95?\x19A'
p1115
tp1116
Rp1117
ag45
(g49
S'\x97\x00\xdc\xbajO\x19A'
p1118
tp1119
Rp1120
ag45
(g49
S'\xa9L\xe0\xa3z>\x16A'
p1121
tp1122
Rp1123
ag45
(g49
S'\x99\xc9\xc3\xa09\xaa\x19A'
p1124
tp1125
Rp1126
ag45
(g49
S'\t\x82\x9fb\x98\xab\x19A'
p1127
tp1128
Rp1129
ag45
(g49
S'J\xf2V\xd9\xad\x92\x17A'
p1130
tp1131
Rp1132
ag45
(g49
S'}Bn]\xd0\xb7\x17A'
p1133
tp1134
Rp1135
ag45
(g49
S'C\xb1\xcf/\xdb\xae\x1bA'
p1136
tp1137
Rp1138
ag45
(g49
S'tI"\xa8E\r\x18A'
p1139
tp1140
Rp1141
ag45
(g49
S'\x94%\xbd\xe2\x12\x8f\x18A'
p1142
tp1143
Rp1144
ag45
(g49
S'x\xc6:\x93s\xa6\x16A'
p1145
tp1146
Rp1147
ag45
(g49
S'\x0f\x9c\xbd0\xe8\xc1\x17A'
p1148
tp1149
Rp1150
asssI2
(dp1151
g13
(dp1152
I100000
(lp1153
F207260.02087904976
aF261367.39623361712
aF295540.8844815631
aF295552.9969240491
aF279535.81311419746
aF339903.7803568107
aF390518.58178446203
aF293546.299940708
aF403416.7360895081
aF313653.7856835136
aF314550.01076688024
aF279153.665939687
aF257181.233716669
aF306544.62553479173
aF296930.7881601082
aF264128.7571680156
aF339383.4117033464
aF221904.4247309216
aF374057.76168012276
aF293920.5965620737
asI50000
(lp1154
F593553.3133448657
aF449951.8657963667
aF625201.1448928621
aF763905.4570393985
aF567029.2807277084
aF644052.8375069408
aF580557.8382974088
aF796399.3357230839
aF583767.6086750518
aF583538.9133124929
aF515319.6264721289
aF647774.0658621042
aF723017.3318445653
aF412079.7722591893
aF597084.8956630082
aF664189.8405422972
aF765523.8695341074
aF548915.235966353
aF650479.2073451893
aF681638.2523204229
asI100
(lp1155
F179196.4674178101
aF99088.41431019593
aF43867.52053004788
aF152939.29584977985
aF54367.1532578518
aF134685.13181956418
aF193939.51030551514
aF38242.18954113332
aF88905.88358122086
aF106184.64648027574
aF85101.407193866
aF96280.74914914681
aF128237.62084394268
aF204429.06898844012
aF148261.7598931106
aF135013.65041120903
aF73566.22819699085
aF74678.64020880556
aF58709.4920921264
aF111187.57130512416
asI1000
(lp1156
F168903.6095234243
aF110619.4194391098
aF186436.36931368258
aF227315.35260696115
aF230000.05373778744
aF270503.16907237185
aF258392.17680665708
aF233504.2874595225
aF122848.01059872907
aF243619.1187274576
aF300383.7260158366
aF128636.46626474196
aF209210.68077331994
aF153810.38986871138
aF129361.61214537735
aF238620.39403122224
aF228426.34519956502
aF156636.22961308676
aF171168.49344236357
aF120763.07365454087
asI10000
(lp1157
F337208.8703403015
aF496073.32424601633
aF270454.7487427663
aF168724.14673003918
aF160254.825986035
aF250618.95221244037
aF385952.8731713984
aF233557.67963371676
aF307465.9778865098
aF435464.80510421714
aF467865.3894064118
aF174100.11811666336
aF269053.0884292179
aF275799.7422909624
aF448027.89385319053
aF114049.58569813258
aF318403.9169743577
aF329222.8876479101
aF238247.5735731767
aF454171.4837478908
asI500
(lp1158
F180509.34889049391
aF223238.7824132044
aF128804.01375310584
aF217098.56872436203
aF278932.894445763
aF196412.86830729866
aF178545.57044079603
aF182288.7530336374
aF248862.97866868303
aF211841.48670250076
aF98709.15394483868
aF141512.725847668
aF288953.86312951386
aF77597.49828202771
aF160518.13359922732
aF225913.54301042913
aF348022.7243739243
aF158930.38520214116
aF159536.57678655547
aF228454.55470124
assg15
(dp1159
I100000
(lp1160
F208200.3978185213
aF184340.0076846213
aF203447.21479466194
aF204857.35567434327
aF218294.24885808618
aF206797.6850807101
aF211802.29318629694
aF198848.8202552007
aF214940.94064246857
aF201396.84254174138
aF188044.76769491663
aF203589.0398587595
aF200500.36354409595
aF158436.7988609807
aF203150.78062587162
aF207191.25646291353
aF209793.141533214
aF209634.979665626
aF188923.76847363147
aF195610.80934798182
asI50000
(lp1161
F317908.7739134374
aF386007.1875179277
aF400325.4967320257
aF344100.6322623911
aF382735.5175991019
aF397526.23071005556
aF355648.8774855645
aF337219.1061868507
aF409870.4659383938
aF387423.7161468174
aF395283.3817236369
aF356673.25357276195
aF390280.50200970087
aF419603.238432703
aF360665.92449275445
aF339955.7702700467
aF320369.47343731736
aF420895.78134029
aF377478.88448596286
aF294983.87666911376
asI100
(lp1162
F57625.0456101094
aF66829.88724138294
aF47275.97504851995
aF74033.07448193616
aF53613.52258962202
aF41586.125080353704
aF49133.707330300305
aF46559.23022250899
aF44896.44976608141
aF35949.78853751033
aF24798.43548494413
aF49669.12042521145
aF54487.613003542356
aF82287.65739943716
aF42024.44165526045
aF50443.780377337534
aF64589.49164755785
aF40478.87382996718
aF49115.142299116254
aF62022.4086289931
asI1000
(lp1163
F45280.14051814627
aF75617.76651138428
aF41217.40221345991
aF67875.61658323082
aF78222.66587110134
aF60302.82616695975
aF83327.3446311236
aF85469.18196339095
aF52320.14622149387
aF45767.49732391794
aF52800.67747679679
aF71296.86193022798
aF59610.47044607536
aF59193.99167953899
aF50499.48204057012
aF25973.137196019532
aF68692.9331942452
aF60274.73704850186
aF76976.1644846371
aF44128.14454729871
asI10000
(lp1164
F93062.20186394273
aF85856.48926099594
aF92663.16619531342
aF20314.93813312609
aF49782.73954890215
aF77080.62004860435
aF33635.680157334406
aF79855.40122425057
aF80188.63464912781
aF78280.68261074714
aF47259.99458852485
aF90149.40373491419
aF69238.44385708754
aF94844.42688694736
aF103037.4364424348
aF73126.54794693335
aF45449.88654424376
aF74107.07429464205
aF107237.03018266743
aF89960.88304620622
asI500
(lp1165
F67492.1920066026
aF85009.58257167977
aF60613.1457662309
aF79682.92185126484
aF82694.92342317232
aF74906.28815659299
aF65314.58579525537
aF59488.979817303596
aF45716.17761500572
aF69771.8073437719
aF68104.31756932693
aF63210.90274067282
aF90184.18099945312
aF77318.40132488628
aF84325.13736286848
aF56755.99347382825
aF75452.22035308577
aF45797.786877636514
aF81520.98029255119
aF66405.5497051011
assg14
(dp1166
I100000
(lp1167
F455102.054769639
aF454000.7561453836
aF453485.64737208665
aF454046.42596258706
aF454258.7420730481
aF453900.29274995154
aF454276.91913034447
aF453791.3365106975
aF453523.564632358
aF454242.64437180845
aF453260.15536057274
aF454984.4814021925
aF453898.35054116364
aF451936.9422905884
aF454129.28984197497
aF452040.0938962252
aF453914.8341864875
aF452945.30821263744
aF455517.9257756919
aF454079.86543400335
asI50000
(lp1168
F1035667.8906754426
aF1033305.153200017
aF1033826.6222475369
aF1035711.7130410456
aF1034914.7794753292
aF1032132.1947287337
aF1037224.2832835204
aF1034614.244940828
aF1036124.5072990973
aF1036024.4818803924
aF1033907.3061205583
aF1036486.531887384
aF1037736.5518848642
aF1036913.3611345803
aF1038711.4878120148
aF1034260.4555906375
aF1037108.369929783
aF1031831.1680775083
aF1037649.3267018341
aF1037742.4153530472
asI100
(lp1169
F495123.1119279032
aF515483.67730038037
aF481706.77566703333
aF497666.11411936133
aF413233.3627533374
aF451713.69187808066
aF448095.48974953924
aF489485.26612242486
aF467525.6710516075
aF445558.0304203327
aF465016.0026433353
aF499631.51670914475
aF443474.039256018
aF490478.1908552259
aF473433.3952562954
aF483447.94986688683
aF444286.62709099613
aF466002.5247839708
aF474775.9066600967
aF470237.52979909664
asI1000
(lp1170
F518969.84968359
aF541254.5919079179
aF537733.4609651009
aF541815.5459802548
aF538085.1284298712
aF547291.0544072816
aF523863.45475341036
aF520852.78418151697
aF548240.9373615546
aF531683.0170484082
aF546694.4014494431
aF532643.3424349331
aF551619.4242966142
aF546312.249828035
aF537495.9038673363
aF557738.892273518
aF557738.4670829505
aF520792.4490987909
aF528799.5315650649
aF519996.4835450747
asI10000
(lp1171
F820098.1073943413
aF820884.2767229506
aF828276.8848001835
aF819001.5647503563
aF820980.3029705009
aF820523.5013303503
aF825195.3674981091
aF821109.1314736494
aF820957.0664564531
aF820103.7396814411
aF826598.5216794291
aF820953.4995634211
aF820905.8727543437
aF823540.872966263
aF824011.5461691098
aF815607.3131955895
aF829609.3129639138
aF822977.3040647611
aF804304.865966602
aF823096.3580687708
asI500
(lp1172
F969071.1159176875
aF925515.5542580879
aF916223.7728724036
aF908120.8111564305
aF957711.5475264308
aF954020.856551306
aF938520.8684485719
aF942863.0329359613
aF968704.391709286
aF944612.2982290357
aF932739.8351036813
aF964161.2576759367
aF946625.2881991944
aF922868.044133994
aF922524.067589444
aF944632.2850148334
aF964507.1040488309
aF937898.9547238334
aF949942.5564224583
aF950423.6902624243
asssI6
(dp1173
g13
(dp1174
I100000
(lp1175
g45
(g49
S'\xed\x1a\x0eSj\xee!@'
p1176
tp1177
Rp1178
ag45
(g49
S'\xab\x8d\xb9\xcf\x84\xea!@'
p1179
tp1180
Rp1181
ag45
(g49
S'0\x0eS\x90\xb5\xe3!@'
p1182
tp1183
Rp1184
ag45
(g49
S'\xeeZ\x8fi\xc0\xf1!@'
p1185
tp1186
Rp1187
ag45
(g49
S'\xee\x15\x07(r\xec!@'
p1188
tp1189
Rp1190
ag45
(g49
S'\xcc\xf5\xee\x15c\xf3!@'
p1191
tp1192
Rp1193
ag45
(g49
S'6`\xdf7\xc1\xef!@'
p1194
tp1195
Rp1196
ag45
(g49
S'\xc6q\x8c\xf9\r\xf7!@'
p1197
tp1198
Rp1199
ag45
(g49
S'dB\xc0\x87Q\xe1!@'
p1200
tp1201
Rp1202
ag45
(g49
S'\x02\xfb\xe0\xd6g\xf9!@'
p1203
tp1204
Rp1205
ag45
(g49
S'[\xc58X\t\xea!@'
p1206
tp1207
Rp1208
ag45
(g49
S'1\x08|r\xe3\xea!@'
p1209
tp1210
Rp1211
ag45
(g49
S'{\xda\xc9^p\xea!@'
p1212
tp1213
Rp1214
ag45
(g49
S'\x0c\x90\x14%\xfd\xec!@'
p1215
tp1216
Rp1217
ag45
(g49
S'!f\xb1l^\xeb!@'
p1218
tp1219
Rp1220
ag45
(g49
S'\x06\xa1\xcc(Z\xed!@'
p1221
tp1222
Rp1223
ag45
(g49
S'<\xc7\xb5\xb4\x95\xe7!@'
p1224
tp1225
Rp1226
ag45
(g49
S'Z\x01\xa5\xa4\xe5\xe5!@'
p1227
tp1228
Rp1229
ag45
(g49
S'$xE\xae\x97\xf1!@'
p1230
tp1231
Rp1232
ag45
(g49
S'\xb4\x82>\xd7B\xf5!@'
p1233
tp1234
Rp1235
asI50000
(lp1236
g45
(g49
S'\xd2\x92\xdaI"\xf1!@'
p1237
tp1238
Rp1239
ag45
(g49
S'\xfc`a\xe0J\xe4!@'
p1240
tp1241
Rp1242
ag45
(g49
S'T\xe2O\x8d\x8f\xdf!@'
p1243
tp1244
Rp1245
ag45
(g49
S'\xd0\xf0\x85\xcf\x99\xf4!@'
p1246
tp1247
Rp1248
ag45
(g49
S'\x0b\x0cq\xa8L\xef!@'
p1249
tp1250
Rp1251
ag45
(g49
S' Zm\xcf\xb6\xfa!@'
p1252
tp1253
Rp1254
ag45
(g49
S'\x8d\x03?\x9d\x9b\xe6!@'
p1255
tp1256
Rp1257
ag45
(g49
S'\x10*\x1d\x1cI\xd8!@'
p1258
tp1259
Rp1260
ag45
(g49
S'\xf8\x1d\xf0\x1f\xe5\xe0!@'
p1261
tp1262
Rp1263
ag45
(g49
S'S\xb6\x8a\x85\x0c\xe9!@'
p1264
tp1265
Rp1266
ag45
(g49
S'\xba;tv>\xf4!@'
p1267
tp1268
Rp1269
ag45
(g49
S'\x1c\xa8\xb7\x03\xd4\xf2!@'
p1270
tp1271
Rp1272
ag45
(g49
S'\xb1\xb3\x91/\xd9\xee!@'
p1273
tp1274
Rp1275
ag45
(g49
S'\xab\xc8\x08\xd2c\xf6!@'
p1276
tp1277
Rp1278
ag45
(g49
S'\xf2\xff\xbf\xe7\x10\xd7!@'
p1279
tp1280
Rp1281
ag45
(g49
S'\xf4\xcd\xd7lI\xe8!@'
p1282
tp1283
Rp1284
ag45
(g49
S'\xb5 \xa2\xbf\xf3\xf1!@'
p1285
tp1286
Rp1287
ag45
(g49
S'\xac\xd1p,\xf9\xe8!@'
p1288
tp1289
Rp1290
ag45
(g49
S'\x17\x19\x02.O\xe0!@'
p1291
tp1292
Rp1293
ag45
(g49
S'dS\xaa\x1c\xb9\xf3!@'
p1294
tp1295
Rp1296
asI100
(lp1297
g45
(g49
S'\rrC\xcdd\xf2!@'
p1298
tp1299
Rp1300
ag45
(g49
S',`\x02\xb9\xb3\xe5!@'
p1301
tp1302
Rp1303
ag45
(g49
S'\xae-\x19\rl\xeb!@'
p1304
tp1305
Rp1306
ag45
(g49
S'8t\xd3\xe8L\xe4!@'
p1307
tp1308
Rp1309
ag45
(g49
S'\xc4\x05fN\x96\xf0!@'
p1310
tp1311
Rp1312
ag45
(g49
S'\x8a\xc1f\xa5)\xdb!@'
p1313
tp1314
Rp1315
ag45
(g49
S')\x038\xa1\xcd\xf4!@'
p1316
tp1317
Rp1318
ag45
(g49
S'\xf4?\x88\xda\xf9\xe1!@'
p1319
tp1320
Rp1321
ag45
(g49
S'\x8b\x8cPT\xfd\xed!@'
p1322
tp1323
Rp1324
ag45
(g49
S'\xd7f\xd0\xcb"\xf3!@'
p1325
tp1326
Rp1327
ag45
(g49
S'Wj`\x08n\xed!@'
p1328
tp1329
Rp1330
ag45
(g49
S'\xd6\x8a\x0c\xb1\x9c\xe9!@'
p1331
tp1332
Rp1333
ag45
(g49
S'\x936\x8c\x05?\xe7!@'
p1334
tp1335
Rp1336
ag45
(g49
S'\x07\xd3\\mD\xf0!@'
p1337
tp1338
Rp1339
ag45
(g49
S'\xa61Y\x0b\xbe\xe1!@'
p1340
tp1341
Rp1342
ag45
(g49
S'\xa8\xd4\x07\xd6\x00\x9d!@'
p1343
tp1344
Rp1345
ag45
(g49
S'\x118\xec=\xab\xed!@'
p1346
tp1347
Rp1348
ag45
(g49
S'v\xf6~\xb3\xa8\xf0!@'
p1349
tp1350
Rp1351
ag45
(g49
S'\xf4\x00X\xbcn\xee!@'
p1352
tp1353
Rp1354
ag45
(g49
S'\x8b1\x04\x96\xc0\xe9!@'
p1355
tp1356
Rp1357
asI1000
(lp1358
g45
(g49
S'\x13\xe5^t\xcf\xf1!@'
p1359
tp1360
Rp1361
ag45
(g49
S'\xab\x96\xfa8D\xeb!@'
p1362
tp1363
Rp1364
ag45
(g49
S'\xdb\xefk\xe7\xc4\xf3!@'
p1365
tp1366
Rp1367
ag45
(g49
S'%\x08\xbc\x0c\xb1\xea!@'
p1368
tp1369
Rp1370
ag45
(g49
S'\xfd\xd3\xb2]\x9c\xfa!@'
p1371
tp1372
Rp1373
ag45
(g49
S'*HsZ\xb5\xed!@'
p1374
tp1375
Rp1376
ag45
(g49
S'd\xc1 }8\xed!@'
p1377
tp1378
Rp1379
ag45
(g49
S'W\x13@\xba\x8c\xeb!@'
p1380
tp1381
Rp1382
ag45
(g49
S'$\x87q\xc3n\xed!@'
p1383
tp1384
Rp1385
ag45
(g49
S'\x15\x0bFH\x8e\xe0!@'
p1386
tp1387
Rp1388
ag45
(g49
S'\x08E?\x81!\xd5!@'
p1389
tp1390
Rp1391
ag45
(g49
S'\xb3F\xd7\x86\xb1\xe1!@'
p1392
tp1393
Rp1394
ag45
(g49
S'\x92E\xf2!}\xdf!@'
p1395
tp1396
Rp1397
ag45
(g49
S'>\x02K\xd7\xe8\xf8!@'
p1398
tp1399
Rp1400
ag45
(g49
S'\n\xea\xda\x0c^\xe8!@'
p1401
tp1402
Rp1403
ag45
(g49
S'\x8a*\xe0d\xdc\xf1!@'
p1404
tp1405
Rp1406
ag45
(g49
S'7\x10\xe9\x89P\xe6!@'
p1407
tp1408
Rp1409
ag45
(g49
S't\xf6m\x93A\xe9!@'
p1410
tp1411
Rp1412
ag45
(g49
S'VC\x11k\xd6\xe9!@'
p1413
tp1414
Rp1415
ag45
(g49
S'W\xc3\x1f`\xa1\xf3!@'
p1416
tp1417
Rp1418
asI10000
(lp1419
g45
(g49
S'H\xe5h\xebY\xe5!@'
p1420
tp1421
Rp1422
ag45
(g49
S'\xbc3\x94\x0f\xfd\xe6!@'
p1423
tp1424
Rp1425
ag45
(g49
S'\\\x01\xb22\xe8\xeb!@'
p1426
tp1427
Rp1428
ag45
(g49
S'\x97}\x83\x7fO\xe7!@'
p1429
tp1430
Rp1431
ag45
(g49
S'\x1c\xb4\xd1\xeb\xd9\xe9!@'
p1432
tp1433
Rp1434
ag45
(g49
S'yQ\xef\xd0}\xee!@'
p1435
tp1436
Rp1437
ag45
(g49
S'\xb6a\xdc\xbf\xcd\xea!@'
p1438
tp1439
Rp1440
ag45
(g49
S'\xe2\x11\x92k\x01\xee!@'
p1441
tp1442
Rp1443
ag45
(g49
S'\xefxk\x9e\x12\xf3!@'
p1444
tp1445
Rp1446
ag45
(g49
S'%\x0cJ\xa6\xe9\xed!@'
p1447
tp1448
Rp1449
ag45
(g49
S'\xf0Re\xf2^\xf4!@'
p1450
tp1451
Rp1452
ag45
(g49
S'\x16\xe04\xfe\x85\xf0!@'
p1453
tp1454
Rp1455
ag45
(g49
S'\\[F\x08\x8f\xe4!@'
p1456
tp1457
Rp1458
ag45
(g49
S'B\xe8<\xa6\xf9\xd9!@'
p1459
tp1460
Rp1461
ag45
(g49
S'\x956\xe6\xb0\xfb\xf2!@'
p1462
tp1463
Rp1464
ag45
(g49
S'z\x8a\xd0\xb8v\xde!@'
p1465
tp1466
Rp1467
ag45
(g49
S'\x15\x0c\x0bf\xa4\xee!@'
p1468
tp1469
Rp1470
ag45
(g49
S'\x8f\r\xe7\xc0\xfa\xf5!@'
p1471
tp1472
Rp1473
ag45
(g49
S'\x18\xfd\x1c\x15\xe6\xf0!@'
p1474
tp1475
Rp1476
ag45
(g49
S'E5\x8c.\xf5\xf4!@'
p1477
tp1478
Rp1479
asI500
(lp1480
g45
(g49
S'\xa6\xa1\x0b\xd4/\xf3!@'
p1481
tp1482
Rp1483
ag45
(g49
S'qR\x82\xc3\x14\xee!@'
p1484
tp1485
Rp1486
ag45
(g49
S'\x00\x10\xa9\xd2\x90\xf1!@'
p1487
tp1488
Rp1489
ag45
(g49
S',G\x18^I\xe8!@'
p1490
tp1491
Rp1492
ag45
(g49
S'\xab\xf8v\x97\xed\xe2!@'
p1493
tp1494
Rp1495
ag45
(g49
S'\x92ff\xe7\x99\xf0!@'
p1496
tp1497
Rp1498
ag45
(g49
S'\x15\xea\xa6d\xfb\xea!@'
p1499
tp1500
Rp1501
ag45
(g49
S'\x1c/sV\x94\xe5!@'
p1502
tp1503
Rp1504
ag45
(g49
S'\xa34_;\x16\xf1!@'
p1505
tp1506
Rp1507
ag45
(g49
S'\xa4\x82\xf3\xdcM\xf4!@'
p1508
tp1509
Rp1510
ag45
(g49
S'B\xdd\xd7x\x82\xdd!@'
p1511
tp1512
Rp1513
ag45
(g49
S'\xe8\x1f\x92\xf8\x87\xf5!@'
p1514
tp1515
Rp1516
ag45
(g49
S'\x84\xd6\xf7\xf2\x86\xd0!@'
p1517
tp1518
Rp1519
ag45
(g49
S'\r\x9a\xcb\x94F\xec!@'
p1520
tp1521
Rp1522
ag45
(g49
S'\xf8k\xa5\x8f\xab\xed!@'
p1523
tp1524
Rp1525
ag45
(g49
S'\x9f\x02\xd8\x81\xcd\xe0!@'
p1526
tp1527
Rp1528
ag45
(g49
S'*\xf0\x84n\x1b\xf4!@'
p1529
tp1530
Rp1531
ag45
(g49
S'\xd8\x87\x97\x19\xb5\xf1!@'
p1532
tp1533
Rp1534
ag45
(g49
S'\xf4\x9a\x9e\xdd\x07\xe1!@'
p1535
tp1536
Rp1537
ag45
(g49
S'\xc9\xc9A\x1f\xf7\xee!@'
p1538
tp1539
Rp1540
assg15
(dp1541
I100000
(lp1542
g45
(g49
S'\x0eE! \x00\xd8!@'
p1543
tp1544
Rp1545
ag45
(g49
S'\x987{\xe15\xd8!@'
p1546
tp1547
Rp1548
ag45
(g49
S'\xcbl\x98\xfe9\xd6!@'
p1549
tp1550
Rp1551
ag45
(g49
S'w~\xcab\x9c\xd7!@'
p1552
tp1553
Rp1554
ag45
(g49
S'T@\xb8\xf4\x1e\xd5!@'
p1555
tp1556
Rp1557
ag45
(g49
S'\x9e?\xf1N#\xd4!@'
p1558
tp1559
Rp1560
ag45
(g49
S'|x\x1f\x10\xb5\xcd!@'
p1561
tp1562
Rp1563
ag45
(g49
S'\xbc\xecQz\x84\xd1!@'
p1564
tp1565
Rp1566
ag45
(g49
S'\x97\xdc\x81\x94\xd3\xd7!@'
p1567
tp1568
Rp1569
ag45
(g49
S'\x1f\xf3\xb0\xec:\xcd!@'
p1570
tp1571
Rp1572
ag45
(g49
S'2\x86`"\xd7\xce!@'
p1573
tp1574
Rp1575
ag45
(g49
S'\x95\x9f\x1f\xd3~\xd1!@'
p1576
tp1577
Rp1578
ag45
(g49
S'|\xa6\xe0\xdd\x82\xcb!@'
p1579
tp1580
Rp1581
ag45
(g49
S'l\xacS\x8fA\xb0!@'
p1582
tp1583
Rp1584
ag45
(g49
S'^EP\x02\x11\xd1!@'
p1585
tp1586
Rp1587
ag45
(g49
S'\x0b\xb6O\xe8y\xd8!@'
p1588
tp1589
Rp1590
ag45
(g49
S'P\xa4\xc8\xfc\xb0\xd6!@'
p1591
tp1592
Rp1593
ag45
(g49
S'\xaa\x1d\xd9\x13\x94\xd1!@'
p1594
tp1595
Rp1596
ag45
(g49
S'd\x94\xf6#\xc3\xd1!@'
p1597
tp1598
Rp1599
ag45
(g49
S'\xd6|\x81y\xba\xd4!@'
p1600
tp1601
Rp1602
asI50000
(lp1603
g45
(g49
S'\xff\x80\xdb\xd4f\xd3!@'
p1604
tp1605
Rp1606
ag45
(g49
S'\x07(\x81\xf0l\xd0!@'
p1607
tp1608
Rp1609
ag45
(g49
S'kZK\xd7\xfe\xd6!@'
p1610
tp1611
Rp1612
ag45
(g49
S'\x8d\xc1\x88\xd8\x8c\xd9!@'
p1613
tp1614
Rp1615
ag45
(g49
S'\x7f\xa4\xeb\x08\x8d\xd7!@'
p1616
tp1617
Rp1618
ag45
(g49
S'\xd0\x0c\xbe?D\xd0!@'
p1619
tp1620
Rp1621
ag45
(g49
S'H\x8f\xde\x11\x81\xce!@'
p1622
tp1623
Rp1624
ag45
(g49
S'P\xab\xdcf\x1d\xd6!@'
p1625
tp1626
Rp1627
ag45
(g49
S'\xd1\xf2\xed\x8f]\xdb!@'
p1628
tp1629
Rp1630
ag45
(g49
S'\xe3k4q|\xcb!@'
p1631
tp1632
Rp1633
ag45
(g49
S'(/\xbff\xfb\xd3!@'
p1634
tp1635
Rp1636
ag45
(g49
S'\xe1O\xd6\xbe\xf2\xd0!@'
p1637
tp1638
Rp1639
ag45
(g49
S'\xbft\xa1\x9f\x8c\xc9!@'
p1640
tp1641
Rp1642
ag45
(g49
S'\xa6e\x12\x18M\xcd!@'
p1643
tp1644
Rp1645
ag45
(g49
S'-U\x8b`F\xd2!@'
p1646
tp1647
Rp1648
ag45
(g49
S'G\xd8[\x84\xdf\xd8!@'
p1649
tp1650
Rp1651
ag45
(g49
S'\xf5{o\xe6\x1e\xce!@'
p1652
tp1653
Rp1654
ag45
(g49
S'\xe8\xd0\xec\xf1\x08\xd4!@'
p1655
tp1656
Rp1657
ag45
(g49
S'\x0c\x95M^\xc2\xd6!@'
p1658
tp1659
Rp1660
ag45
(g49
S'\x90\xcb\xf0\x1c\x11\xd4!@'
p1661
tp1662
Rp1663
asI100
(lp1664
g45
(g49
S' \x91\xb1\xdfa\xca!@'
p1665
tp1666
Rp1667
ag45
(g49
S'\xb7\x94\x06\x8a\xb1\xd2!@'
p1668
tp1669
Rp1670
ag45
(g49
S'\xf3\x90\xeaz\r\xce!@'
p1671
tp1672
Rp1673
ag45
(g49
S'\xa2\xeb\xc2\xe86\xcf!@'
p1674
tp1675
Rp1676
ag45
(g49
S'3\x90T\xfd\xac\xd6!@'
p1677
tp1678
Rp1679
ag45
(g49
S'\x10:\x04\xda}\xd1!@'
p1680
tp1681
Rp1682
ag45
(g49
S'\x07\xd0\x0e\xe3y\xd3!@'
p1683
tp1684
Rp1685
ag45
(g49
S'\xdc\xff\xca\xc5\xd8\xd2!@'
p1686
tp1687
Rp1688
ag45
(g49
S'\x06\x81\xa0\xdc7\xca!@'
p1689
tp1690
Rp1691
ag45
(g49
S'\xe7\xae\xc2\xc3\x82\xd2!@'
p1692
tp1693
Rp1694
ag45
(g49
S"'nk\xdc\xc0\xd2!@"
p1695
tp1696
Rp1697
ag45
(g49
S'\xb8\x15\xdd\x15\xc6\xd1!@'
p1698
tp1699
Rp1700
ag45
(g49
S'\x11\xa7:\xf1\x13\xd7!@'
p1701
tp1702
Rp1703
ag45
(g49
S'\x00\xbb#\xf0\xc0\xd1!@'
p1704
tp1705
Rp1706
ag45
(g49
S'\xc6\x02z\xba{\xd6!@'
p1707
tp1708
Rp1709
ag45
(g49
S'\x92\x1e*\xb4\x83\xcf!@'
p1710
tp1711
Rp1712
ag45
(g49
S'pu\xc4\xcf\x83\xc6!@'
p1713
tp1714
Rp1715
ag45
(g49
S'\x9d\xe8\\L\x05\xce!@'
p1716
tp1717
Rp1718
ag45
(g49
S'\xa4\x02\x11\x7f]\xd1!@'
p1719
tp1720
Rp1721
ag45
(g49
S'n*\xcf\xef\xf9\xc6!@'
p1722
tp1723
Rp1724
asI1000
(lp1725
g45
(g49
S'\n\x9dg\xb3\x92\xcf!@'
p1726
tp1727
Rp1728
ag45
(g49
S'!V\xa4\t\xd1\xd2!@'
p1729
tp1730
Rp1731
ag45
(g49
S'x<%\xa0\x9a\xd2!@'
p1732
tp1733
Rp1734
ag45
(g49
S'\xe4\x9d{\xb1\x94\xd7!@'
p1735
tp1736
Rp1737
ag45
(g49
S'9\xf3\xd3\x80\x11\xdc!@'
p1738
tp1739
Rp1740
ag45
(g49
S'\xd4\x8cF\x93\x9c\xdb!@'
p1741
tp1742
Rp1743
ag45
(g49
S'\xe3\xd6\xad\xbf[\xd4!@'
p1744
tp1745
Rp1746
ag45
(g49
S'\xe7\x95\x1f\xae\xd0\xdb!@'
p1747
tp1748
Rp1749
ag45
(g49
S'\x82\xbf\x91\x0c\xd9\xd3!@'
p1750
tp1751
Rp1752
ag45
(g49
S'Dq\x1f\xeb\xe2\xd2!@'
p1753
tp1754
Rp1755
ag45
(g49
S'$I\xa2\x8f\xbb\xd6!@'
p1756
tp1757
Rp1758
ag45
(g49
S'\xdd\x9c\x9c^\x12\xcf!@'
p1759
tp1760
Rp1761
ag45
(g49
S'G\xecJ\xbbT\xd3!@'
p1762
tp1763
Rp1764
ag45
(g49
S'\x8c\xadR\xf8s\xcf!@'
p1765
tp1766
Rp1767
ag45
(g49
S'l|MR3\xd7!@'
p1768
tp1769
Rp1770
ag45
(g49
S'\x07j\xb3\xa9e\xcd!@'
p1771
tp1772
Rp1773
ag45
(g49
S'\xe1\xfb\x9e\x16D\xd0!@'
p1774
tp1775
Rp1776
ag45
(g49
S'\xd4\x99\xe3\xf9\x12\xd4!@'
p1777
tp1778
Rp1779
ag45
(g49
S'\x8f\x13J\xc0\xec\xdb!@'
p1780
tp1781
Rp1782
ag45
(g49
S'\xc4}\xfd\xa2\xf2\xcd!@'
p1783
tp1784
Rp1785
asI10000
(lp1786
g45
(g49
S'>\xb4I\xd0\xfb\xd1!@'
p1787
tp1788
Rp1789
ag45
(g49
S'1\x07\xf1i<\xd2!@'
p1790
tp1791
Rp1792
ag45
(g49
S'IA\x80\x17\x8b\xd1!@'
p1793
tp1794
Rp1795
ag45
(g49
S'\xf5k\xce\x8f\xbf\xcf!@'
p1796
tp1797
Rp1798
ag45
(g49
S'\xb9\x7f\xbfd\xc3\xd7!@'
p1799
tp1800
Rp1801
ag45
(g49
S'\xbc:/\xca\x0b\xd5!@'
p1802
tp1803
Rp1804
ag45
(g49
S'\xbbnEf\xdb\xcd!@'
p1805
tp1806
Rp1807
ag45
(g49
S'\x8b\xb4\xcbe\xd5\xd3!@'
p1808
tp1809
Rp1810
ag45
(g49
S'!\xf13\x05\xb6\xce!@'
p1811
tp1812
Rp1813
ag45
(g49
S'\x94\xd5<\xc4\xce\xcd!@'
p1814
tp1815
Rp1816
ag45
(g49
S'9\x1c\xf8wv\xd5!@'
p1817
tp1818
Rp1819
ag45
(g49
S'\xfb\x08\xae\x05\xd7\xd6!@'
p1820
tp1821
Rp1822
ag45
(g49
S'$\xeb\xc3I\xe3\xd7!@'
p1823
tp1824
Rp1825
ag45
(g49
S'z\x93\xe3\x1b\xb8\xd4!@'
p1826
tp1827
Rp1828
ag45
(g49
S'\x15)\xd5b\r\xd9!@'
p1829
tp1830
Rp1831
ag45
(g49
S'k\xa8\x1f%\xa6\xd5!@'
p1832
tp1833
Rp1834
ag45
(g49
S'=\x84<0\x8d\xd4!@'
p1835
tp1836
Rp1837
ag45
(g49
S'\xc4%\xc5\xdcC\xb9!@'
p1838
tp1839
Rp1840
ag45
(g49
S'\x013\x96\xc0\xfc\xd5!@'
p1841
tp1842
Rp1843
ag45
(g49
S'\x89x*\xb6\xde\xd6!@'
p1844
tp1845
Rp1846
asI500
(lp1847
g45
(g49
S'\xba\xac\x96r\xc3\xd3!@'
p1848
tp1849
Rp1850
ag45
(g49
S'\x9b\xe5*s\x88\xcf!@'
p1851
tp1852
Rp1853
ag45
(g49
S'\xa62\x0b\x8f\xc2\xcd!@'
p1854
tp1855
Rp1856
ag45
(g49
S'\xad\x8c\xc3\xe5t\xcf!@'
p1857
tp1858
Rp1859
ag45
(g49
S"r')\xd4_\xcf!@"
p1860
tp1861
Rp1862
ag45
(g49
S'\x98\x9fKF\xd4\xcf!@'
p1863
tp1864
Rp1865
ag45
(g49
S'\xb1\x15/\xb8\xb0\xd5!@'
p1866
tp1867
Rp1868
ag45
(g49
S'Np\x90\x10\xcd\xcb!@'
p1869
tp1870
Rp1871
ag45
(g49
S'\x0e\x16i\xd30\xd3!@'
p1872
tp1873
Rp1874
ag45
(g49
S'[\\3\xf9u\xca!@'
p1875
tp1876
Rp1877
ag45
(g49
S'2\xeb\xe9\x7f\x87\xcf!@'
p1878
tp1879
Rp1880
ag45
(g49
S'\xc6\x06\xec\xa0\xe5\xbf!@'
p1881
tp1882
Rp1883
ag45
(g49
S'\xe9%\xe5\xb9\x15\xcf!@'
p1884
tp1885
Rp1886
ag45
(g49
S'\xe1\xbdYX\x93\xc8!@'
p1887
tp1888
Rp1889
ag45
(g49
S'9;6\xb6\xed\xc9!@'
p1890
tp1891
Rp1892
ag45
(g49
S'\xec8\xeb2e\xd3!@'
p1893
tp1894
Rp1895
ag45
(g49
S'\xde0\xfa\xd9"\xd0!@'
p1896
tp1897
Rp1898
ag45
(g49
S'\xd2\x02\xdb\xba\xbd\xd6!@'
p1899
tp1900
Rp1901
ag45
(g49
S'\xdf\xb3\xf8\xed\xf9\xd2!@'
p1902
tp1903
Rp1904
ag45
(g49
S'x&\xd8Y\n\xd5!@'
p1905
tp1906
Rp1907
assg14
(dp1908
I100000
(lp1909
g45
(g49
S"\xc7'\xf3\xd4%\xee!@"
p1910
tp1911
Rp1912
ag45
(g49
S'*\\\xbb\xe0\xa1\xeb!@'
p1913
tp1914
Rp1915
ag45
(g49
S':-\xcd\xa2\x9b\xe2!@'
p1916
tp1917
Rp1918
ag45
(g49
S'\xca3\x92Dd\xef!@'
p1919
tp1920
Rp1921
ag45
(g49
S'\x045\x92T\xd1\xe8!@'
p1922
tp1923
Rp1924
ag45
(g49
S'z\xf6\xf2C\xdf\xe4!@'
p1925
tp1926
Rp1927
ag45
(g49
S"\x99gbJ'\xee!@"
p1928
tp1929
Rp1930
ag45
(g49
S'\xed\xba\xce\xb5\xd9\xeb!@'
p1931
tp1932
Rp1933
ag45
(g49
S'\xc2\xba"\xd1@\xe4!@'
p1934
tp1935
Rp1936
ag45
(g49
S'2\x18\xc0\xe1x\xe3!@'
p1937
tp1938
Rp1939
ag45
(g49
S')8\x18\xf7\xdc\xed!@'
p1940
tp1941
Rp1942
ag45
(g49
S'\xc5\x02W\x82\xd2\xf4!@'
p1943
tp1944
Rp1945
ag45
(g49
S"\xfa\xa0\xcc'\xa2\xe2!@"
p1946
tp1947
Rp1948
ag45
(g49
S'\xb2\x13\x18\xb6\xe6\xf3!@'
p1949
tp1950
Rp1951
ag45
(g49
S'9\xb1\xd0)\xd4\xdd!@'
p1952
tp1953
Rp1954
ag45
(g49
S'\x1f*V\x891\xef!@'
p1955
tp1956
Rp1957
ag45
(g49
S',\x13\x96\xf2\xf9\xeb!@'
p1958
tp1959
Rp1960
ag45
(g49
S'<D\xe5\xf9W\xe2!@'
p1961
tp1962
Rp1963
ag45
(g49
S'\x1c\xad\xa0\xcd\xb7\xf7!@'
p1964
tp1965
Rp1966
ag45
(g49
S'{\xc6z\xf8\x03\xea!@'
p1967
tp1968
Rp1969
asI50000
(lp1970
g45
(g49
S'I\xc9\xde4\xa5\xf2!@'
p1971
tp1972
Rp1973
ag45
(g49
S'+\r\xbc\x12\x02\xd6!@'
p1974
tp1975
Rp1976
ag45
(g49
S'@\xb3\x84T\xad\xf5!@'
p1977
tp1978
Rp1979
ag45
(g49
S'H$@\xf6\x16\xe8!@'
p1980
tp1981
Rp1982
ag45
(g49
S"\xf2'\x00)a\xea!@"
p1983
tp1984
Rp1985
ag45
(g49
S'L\xac\x05\x0fq\xf1!@'
p1986
tp1987
Rp1988
ag45
(g49
S'\xc8\xfdm\xa6\xdd\xf7!@'
p1989
tp1990
Rp1991
ag45
(g49
S'\xae\x8c\xdc\xa5\xba\xee!@'
p1992
tp1993
Rp1994
ag45
(g49
S'\xfek>%\x07\xcb!@'
p1995
tp1996
Rp1997
ag45
(g49
S'\x01n\x1a7\xf2\xf3!@'
p1998
tp1999
Rp2000
ag45
(g49
S'\x0f\x1a\\M\x91\xe8!@'
p2001
tp2002
Rp2003
ag45
(g49
S'\xb6\xd8\xed\x01w\xf0!@'
p2004
tp2005
Rp2006
ag45
(g49
S'\xbb\xfa:_\xbe\xe9!@'
p2007
tp2008
Rp2009
ag45
(g49
S'\x9f}2*q\xf9!@'
p2010
tp2011
Rp2012
ag45
(g49
S'\x13\xc2\x89\x16\xc7\xe9!@'
p2013
tp2014
Rp2015
ag45
(g49
S'W\x8d`\x9a]\xe1!@'
p2016
tp2017
Rp2018
ag45
(g49
S'g\x97\xd3\x1d\xa9\xef!@'
p2019
tp2020
Rp2021
ag45
(g49
S'"\x8c\xb8\'\xd0\xf4!@'
p2022
tp2023
Rp2024
ag45
(g49
S'm\x84\x9a\x82E\xf1!@'
p2025
tp2026
Rp2027
ag45
(g49
S'\xa7\xd1\xb6\xc4\xd7\xf3!@'
p2028
tp2029
Rp2030
asI100
(lp2031
g45
(g49
S'9\xfc\x1f\x11\xfc\xea!@'
p2032
tp2033
Rp2034
ag45
(g49
S'\xe4\xd7\xa4\xd5\x01\xd9!@'
p2035
tp2036
Rp2037
ag45
(g49
S'aX_~&\xf0!@'
p2038
tp2039
Rp2040
ag45
(g49
S',\x98\t\x84\x08\xde!@'
p2041
tp2042
Rp2043
ag45
(g49
S'\xc9\xb8\x0e\x95&\xe6!@'
p2044
tp2045
Rp2046
ag45
(g49
S'\xe4V.R\xbe\xf0!@'
p2047
tp2048
Rp2049
ag45
(g49
S'\xbe\x8b\xdd\xa0\x86\xe3!@'
p2050
tp2051
Rp2052
ag45
(g49
S'\x8b:3\x0f\xd6\xef!@'
p2053
tp2054
Rp2055
ag45
(g49
S'\xcd~\x92\xbe\xd0\xe1!@'
p2056
tp2057
Rp2058
ag45
(g49
S'e@\x16b\xc2\xcc!@'
p2059
tp2060
Rp2061
ag45
(g49
S'PRGD\xbc\xd8!@'
p2062
tp2063
Rp2064
ag45
(g49
S'\tt\x17\xe4\xa3\xe7!@'
p2065
tp2066
Rp2067
ag45
(g49
S'\xb1f\xa85\x0c\xf3!@'
p2068
tp2069
Rp2070
ag45
(g49
S'\xeec\xbf\x99\xea\xed!@'
p2071
tp2072
Rp2073
ag45
(g49
S' \xc4\xa0\xf1-\xf3!@'
p2074
tp2075
Rp2076
ag45
(g49
S'^k\x88o\x17\xeb!@'
p2077
tp2078
Rp2079
ag45
(g49
S'R\x80%5p\xe4!@'
p2080
tp2081
Rp2082
ag45
(g49
S'\x90\xf5\xca\x15\\\xf6!@'
p2083
tp2084
Rp2085
ag45
(g49
S'D\xde\x95\xa2\x8b\xe7!@'
p2086
tp2087
Rp2088
ag45
(g49
S'\x83\xc3{C\xce\xed!@'
p2089
tp2090
Rp2091
asI1000
(lp2092
g45
(g49
S'C\xc0\xa4\x84\x8c\xdd!@'
p2093
tp2094
Rp2095
ag45
(g49
S'5\xd7S\x14\x8d\xf0!@'
p2096
tp2097
Rp2098
ag45
(g49
S'y\xd1\xe6\xaf\x9b\xee!@'
p2099
tp2100
Rp2101
ag45
(g49
S'M\xb9FVu\xe3!@'
p2102
tp2103
Rp2104
ag45
(g49
S'n\xd0\xea:\xa5\xf1!@'
p2105
tp2106
Rp2107
ag45
(g49
S'\x1b\x84\xa1\xc6\xb0\xee!@'
p2108
tp2109
Rp2110
ag45
(g49
S'c\t\x1a\xf7\x87\xf5!@'
p2111
tp2112
Rp2113
ag45
(g49
S'\xf7\xf4\x9dQ6\xed!@'
p2114
tp2115
Rp2116
ag45
(g49
S'\xcb\xd2\xdf\xc8\xb2\xf6!@'
p2117
tp2118
Rp2119
ag45
(g49
S'\xa2w\xfa\xb8\xb3\xee!@'
p2120
tp2121
Rp2122
ag45
(g49
S'\x0b\xab\xc1\xdc\xf1\xf0!@'
p2123
tp2124
Rp2125
ag45
(g49
S'y\x90.\xa34\xea!@'
p2126
tp2127
Rp2128
ag45
(g49
S'\xa2m\xd1\x9dT\xec!@'
p2129
tp2130
Rp2131
ag45
(g49
S'\xdd\x89\xa5\xb4\xa0\xe8!@'
p2132
tp2133
Rp2134
ag45
(g49
S'\xfc\xf7yX\xe9\xec!@'
p2135
tp2136
Rp2137
ag45
(g49
S'\x85\x10\x10\xaa\x0e\xeb!@'
p2138
tp2139
Rp2140
ag45
(g49
S'\x9d\x83\xc7\x02L\xe6!@'
p2141
tp2142
Rp2143
ag45
(g49
S's-S_\x03\xf0!@'
p2144
tp2145
Rp2146
ag45
(g49
S'\xc8$\x93?2\xe7!@'
p2147
tp2148
Rp2149
ag45
(g49
S'P\xfeum\xba\xe9!@'
p2150
tp2151
Rp2152
asI10000
(lp2153
g45
(g49
S'G\tK\xaam\xed!@'
p2154
tp2155
Rp2156
ag45
(g49
S'\x8e\xb8\xe4\xb8\xcd\xf7!@'
p2157
tp2158
Rp2159
ag45
(g49
S'(YR\x99a\xf0!@'
p2160
tp2161
Rp2162
ag45
(g49
S'V\xb0\x10\x1d\x8d\xe6!@'
p2163
tp2164
Rp2165
ag45
(g49
S'\x91\xf1L\x1a\xaa\xf2!@'
p2166
tp2167
Rp2168
ag45
(g49
S'\xecG\xa1\xffx\xdf!@'
p2169
tp2170
Rp2171
ag45
(g49
S'}q\xdd\x08b\xf1!@'
p2172
tp2173
Rp2174
ag45
(g49
S'2\xc0\xb8p\x9b\xf2!@'
p2175
tp2176
Rp2177
ag45
(g49
S'\x8c g\x86\t\xe3!@'
p2178
tp2179
Rp2180
ag45
(g49
S'a\x1ev9f\xf0!@'
p2181
tp2182
Rp2183
ag45
(g49
S'\x97u\x9d\xe8\x80\xe7!@'
p2184
tp2185
Rp2186
ag45
(g49
S'L\x1bY\x8e\xd2\xe3!@'
p2187
tp2188
Rp2189
ag45
(g49
S'\xec\xd1\xa3,\xdd\xe7!@'
p2190
tp2191
Rp2192
ag45
(g49
S'e\x0f\xb3\t\xc1\xf5!@'
p2193
tp2194
Rp2195
ag45
(g49
S'6\xd1J\xc8\xa7\xd8!@'
p2196
tp2197
Rp2198
ag45
(g49
S'\xd5\xea\xbf\x15\xe7\xe9!@'
p2199
tp2200
Rp2201
ag45
(g49
S'\xdc>\xeb\xa1H\xec!@'
p2202
tp2203
Rp2204
ag45
(g49
S'x\xa4\xda\xb0\xea\xf3!@'
p2205
tp2206
Rp2207
ag45
(g49
S'W\xa2\x10\xdcN\xf2!@'
p2208
tp2209
Rp2210
ag45
(g49
S'=\xcb&\x15|\xee!@'
p2211
tp2212
Rp2213
asI500
(lp2214
g45
(g49
S'!@\x04\x0e\x00\xe7!@'
p2215
tp2216
Rp2217
ag45
(g49
S'GK8\xefB\xf2!@'
p2218
tp2219
Rp2220
ag45
(g49
S'o\xc5\xd3\x9a\x16\xef!@'
p2221
tp2222
Rp2223
ag45
(g49
S'\xd1\xf1\x00\x85\xb6\xf7!@'
p2224
tp2225
Rp2226
ag45
(g49
S'\x87\xe1\xd6\x9e\x89\xeb!@'
p2227
tp2228
Rp2229
ag45
(g49
S'\xc2\xa0l`\x13\xf3!@'
p2230
tp2231
Rp2232
ag45
(g49
S'\xe8\xb1\xbftT\xec!@'
p2233
tp2234
Rp2235
ag45
(g49
S'1Pb\xb7\x88\xef!@'
p2236
tp2237
Rp2238
ag45
(g49
S'\xa2\x89\xe5\x88\xda\xf3!@'
p2239
tp2240
Rp2241
ag45
(g49
S'A~0F\xaa\xe5!@'
p2242
tp2243
Rp2244
ag45
(g49
S'\xc8\xa2i\r\x13\xf6!@'
p2245
tp2246
Rp2247
ag45
(g49
S'!\xea\xb9\x7f\xb2\xe1!@'
p2248
tp2249
Rp2250
ag45
(g49
S'\x16\xed)J\xa3\xe2!@'
p2251
tp2252
Rp2253
ag45
(g49
S'|X\x9a\xe1\xe1\xeb!@'
p2254
tp2255
Rp2256
ag45
(g49
S'\x0c\xf1\x96\xe6\x13\xdf!@'
p2257
tp2258
Rp2259
ag45
(g49
S'\x08\xd8\xbd\xb6\x1e\xed!@'
p2260
tp2261
Rp2262
ag45
(g49
S"\x1d' V\x8f\xe5!@"
p2263
tp2264
Rp2265
ag45
(g49
S'\xef\xe5+<\xfa\xe3!@'
p2266
tp2267
Rp2268
ag45
(g49
S'\xe6GX\x10:\xee!@'
p2269
tp2270
Rp2271
ag45
(g49
S'\xb9e\x03\x8f\x12\xee!@'
p2272
tp2273
Rp2274
assssS'id'
p2275
I2
s.